   1              		.cpu cortex-m0
   2              		.eabi_attribute 20, 1
   3              		.eabi_attribute 21, 1
   4              		.eabi_attribute 23, 3
   5              		.eabi_attribute 24, 1
   6              		.eabi_attribute 25, 1
   7              		.eabi_attribute 26, 1
   8              		.eabi_attribute 30, 4
   9              		.eabi_attribute 34, 0
  10              		.eabi_attribute 18, 4
  11              		.file	"simpleserial.c"
  12              		.text
  13              	.Ltext0:
  14              		.cfi_sections	.debug_frame
  15              		.section	.text.check_version,"ax",%progbits
  16              		.align	1
  17              		.global	check_version
  18              		.arch armv6s-m
  19              		.syntax unified
  20              		.code	16
  21              		.thumb_func
  22              		.fpu softvfp
  24              	check_version:
  25              	.LVL0:
  26              	.LFB3:
  27              		.file 1 ".././simpleserial/simpleserial.c"
   1:.././simpleserial/simpleserial.c **** // simpleserial.c
   2:.././simpleserial/simpleserial.c **** 
   3:.././simpleserial/simpleserial.c **** #include "simpleserial.h"
   4:.././simpleserial/simpleserial.c **** #include <stdint.h>
   5:.././simpleserial/simpleserial.c **** #include "hal.h"
   6:.././simpleserial/simpleserial.c **** 
   7:.././simpleserial/simpleserial.c **** 
   8:.././simpleserial/simpleserial.c **** #define MAX_SS_CMDS 16
   9:.././simpleserial/simpleserial.c **** static int num_commands = 0;
  10:.././simpleserial/simpleserial.c **** 
  11:.././simpleserial/simpleserial.c **** #define MAX_SS_LEN 256
  12:.././simpleserial/simpleserial.c **** 
  13:.././simpleserial/simpleserial.c **** //#define SS_VER_1_0 0
  14:.././simpleserial/simpleserial.c **** //#define SS_VER_1_1 1
  15:.././simpleserial/simpleserial.c **** //#define SS_VER_2_0 2
  16:.././simpleserial/simpleserial.c **** 
  17:.././simpleserial/simpleserial.c **** 
  18:.././simpleserial/simpleserial.c **** // 0xA6 formerly 
  19:.././simpleserial/simpleserial.c **** #define CW_CRC 0x4D 
  20:.././simpleserial/simpleserial.c **** uint8_t ss_crc(uint8_t *buf, uint8_t len)
  21:.././simpleserial/simpleserial.c **** {
  22:.././simpleserial/simpleserial.c **** 	unsigned int k = 0;
  23:.././simpleserial/simpleserial.c **** 	uint8_t crc = 0x00;
  24:.././simpleserial/simpleserial.c **** 	while (len--) {
  25:.././simpleserial/simpleserial.c **** 		crc ^= *buf++;
  26:.././simpleserial/simpleserial.c **** 		for (k = 0; k < 8; k++) {
  27:.././simpleserial/simpleserial.c **** 			crc = crc & 0x80 ? (crc << 1) ^ CW_CRC: crc << 1;
  28:.././simpleserial/simpleserial.c **** 		}
  29:.././simpleserial/simpleserial.c **** 	}
  30:.././simpleserial/simpleserial.c **** 	return crc;
  31:.././simpleserial/simpleserial.c **** 
  32:.././simpleserial/simpleserial.c **** }
  33:.././simpleserial/simpleserial.c **** 
  34:.././simpleserial/simpleserial.c **** // [B_STUFF, CMD, SCMD, LEN, B_STUFF, DATA..., CRC, TERM]
  35:.././simpleserial/simpleserial.c **** 
  36:.././simpleserial/simpleserial.c **** //#define SS_VER SS_VER_2_0
  37:.././simpleserial/simpleserial.c **** #if SS_VER == SS_VER_2_0
  38:.././simpleserial/simpleserial.c **** #error "SS_VER_2_0 is deprecated! Use SS_VER_2_1 instead."
  39:.././simpleserial/simpleserial.c **** #elif SS_VER == SS_VER_2_1
  40:.././simpleserial/simpleserial.c **** 
  41:.././simpleserial/simpleserial.c **** int hex_decode(int len, char* ascii_buf, uint8_t* data_buf)
  42:.././simpleserial/simpleserial.c **** {
  43:.././simpleserial/simpleserial.c **** 	for(int i = 0; i < len; i++)
  44:.././simpleserial/simpleserial.c **** 	{
  45:.././simpleserial/simpleserial.c **** 		char n_hi = ascii_buf[2*i];
  46:.././simpleserial/simpleserial.c **** 		char n_lo = ascii_buf[2*i+1];
  47:.././simpleserial/simpleserial.c **** 
  48:.././simpleserial/simpleserial.c **** 		if(n_lo >= '0' && n_lo <= '9')
  49:.././simpleserial/simpleserial.c **** 			data_buf[i] = n_lo - '0';
  50:.././simpleserial/simpleserial.c **** 		else if(n_lo >= 'A' && n_lo <= 'F')
  51:.././simpleserial/simpleserial.c **** 			data_buf[i] = n_lo - 'A' + 10;
  52:.././simpleserial/simpleserial.c **** 		else if(n_lo >= 'a' && n_lo <= 'f')
  53:.././simpleserial/simpleserial.c **** 			data_buf[i] = n_lo - 'a' + 10;
  54:.././simpleserial/simpleserial.c **** 		else
  55:.././simpleserial/simpleserial.c **** 			return 1;
  56:.././simpleserial/simpleserial.c **** 
  57:.././simpleserial/simpleserial.c **** 		if(n_hi >= '0' && n_hi <= '9')
  58:.././simpleserial/simpleserial.c **** 			data_buf[i] |= (n_hi - '0') << 4;
  59:.././simpleserial/simpleserial.c **** 		else if(n_hi >= 'A' && n_hi <= 'F')
  60:.././simpleserial/simpleserial.c **** 			data_buf[i] |= (n_hi - 'A' + 10) << 4;
  61:.././simpleserial/simpleserial.c **** 		else if(n_hi >= 'a' && n_hi <= 'f')
  62:.././simpleserial/simpleserial.c **** 			data_buf[i] |= (n_hi - 'a' + 10) << 4;
  63:.././simpleserial/simpleserial.c **** 		else
  64:.././simpleserial/simpleserial.c **** 			return 1;
  65:.././simpleserial/simpleserial.c **** 	}
  66:.././simpleserial/simpleserial.c **** 
  67:.././simpleserial/simpleserial.c **** 	return 0;
  68:.././simpleserial/simpleserial.c **** }
  69:.././simpleserial/simpleserial.c **** 
  70:.././simpleserial/simpleserial.c **** typedef struct ss_cmd
  71:.././simpleserial/simpleserial.c **** {
  72:.././simpleserial/simpleserial.c **** 	char c;
  73:.././simpleserial/simpleserial.c **** 	unsigned int len;
  74:.././simpleserial/simpleserial.c **** 	uint8_t (*fp)(uint8_t, uint8_t, uint8_t, uint8_t *);
  75:.././simpleserial/simpleserial.c **** } ss_cmd;
  76:.././simpleserial/simpleserial.c **** static ss_cmd commands[MAX_SS_CMDS];
  77:.././simpleserial/simpleserial.c **** 
  78:.././simpleserial/simpleserial.c **** void ss_puts(char *x)
  79:.././simpleserial/simpleserial.c **** {
  80:.././simpleserial/simpleserial.c **** 	do {
  81:.././simpleserial/simpleserial.c **** 		putch(*x);
  82:.././simpleserial/simpleserial.c **** 	} while (*++x);
  83:.././simpleserial/simpleserial.c **** }
  84:.././simpleserial/simpleserial.c **** 
  85:.././simpleserial/simpleserial.c **** #define FRAME_BYTE 0x00
  86:.././simpleserial/simpleserial.c **** 
  87:.././simpleserial/simpleserial.c **** uint8_t check_version(uint8_t cmd, uint8_t scmd, uint8_t len, uint8_t *data)
  88:.././simpleserial/simpleserial.c **** {
  89:.././simpleserial/simpleserial.c **** 	uint8_t ver = SS_VER;
  90:.././simpleserial/simpleserial.c **** 	simpleserial_put('r', 1, &ver);
  91:.././simpleserial/simpleserial.c **** 	return SS_ERR_OK;
  92:.././simpleserial/simpleserial.c **** }
  93:.././simpleserial/simpleserial.c **** 
  94:.././simpleserial/simpleserial.c **** uint8_t ss_get_commands(uint8_t cmd, uint8_t scmd, uint8_t len, uint8_t *data)
  95:.././simpleserial/simpleserial.c **** {
  96:.././simpleserial/simpleserial.c ****     uint8_t cmd_chars[MAX_SS_CMDS];
  97:.././simpleserial/simpleserial.c ****     for (uint8_t i = 0; i < (num_commands & 0xFF); i++) {
  98:.././simpleserial/simpleserial.c ****         cmd_chars[i] = commands[i].c;
  99:.././simpleserial/simpleserial.c ****     }
 100:.././simpleserial/simpleserial.c **** 
 101:.././simpleserial/simpleserial.c ****     simpleserial_put('r', num_commands & 0xFF, (void *)cmd_chars);
 102:.././simpleserial/simpleserial.c ****     return 0x00;
 103:.././simpleserial/simpleserial.c **** 
 104:.././simpleserial/simpleserial.c **** }
 105:.././simpleserial/simpleserial.c **** 
 106:.././simpleserial/simpleserial.c **** uint8_t stuff_data(uint8_t *buf, uint8_t len)
 107:.././simpleserial/simpleserial.c **** {
 108:.././simpleserial/simpleserial.c **** 	uint8_t i = 1;
 109:.././simpleserial/simpleserial.c **** 	uint8_t last = 0;
 110:.././simpleserial/simpleserial.c **** 	for (; i < len; i++) {
 111:.././simpleserial/simpleserial.c **** 		if (buf[i] == FRAME_BYTE) {
 112:.././simpleserial/simpleserial.c **** 			buf[last] = i - last;
 113:.././simpleserial/simpleserial.c **** 			last = i;
 114:.././simpleserial/simpleserial.c **** 		}
 115:.././simpleserial/simpleserial.c **** 	}
 116:.././simpleserial/simpleserial.c **** 	return 0x00;
 117:.././simpleserial/simpleserial.c **** }
 118:.././simpleserial/simpleserial.c **** 
 119:.././simpleserial/simpleserial.c **** uint8_t unstuff_data(uint8_t *buf, uint8_t len)
 120:.././simpleserial/simpleserial.c **** {
 121:.././simpleserial/simpleserial.c **** 	uint8_t next = buf[0];
 122:.././simpleserial/simpleserial.c **** 	buf[0] = 0x00;
 123:.././simpleserial/simpleserial.c **** 	//len -= 1;
 124:.././simpleserial/simpleserial.c **** 	uint8_t tmp = next;
 125:.././simpleserial/simpleserial.c **** 	while ((next < len) && tmp != 0) {
 126:.././simpleserial/simpleserial.c **** 		tmp = buf[next];
 127:.././simpleserial/simpleserial.c **** 		buf[next] = FRAME_BYTE;
 128:.././simpleserial/simpleserial.c **** 		next += tmp;
 129:.././simpleserial/simpleserial.c **** 	}
 130:.././simpleserial/simpleserial.c **** 	return next;
 131:.././simpleserial/simpleserial.c **** }
 132:.././simpleserial/simpleserial.c **** 
 133:.././simpleserial/simpleserial.c **** // Set up the SimpleSerial module by preparing internal commands
 134:.././simpleserial/simpleserial.c **** // This just adds the "v" command for now...
 135:.././simpleserial/simpleserial.c **** void simpleserial_init()
 136:.././simpleserial/simpleserial.c **** {
 137:.././simpleserial/simpleserial.c **** 	simpleserial_addcmd('v', 0, check_version);
 138:.././simpleserial/simpleserial.c ****     simpleserial_addcmd('w', 0, ss_get_commands);
 139:.././simpleserial/simpleserial.c **** }
 140:.././simpleserial/simpleserial.c **** 
 141:.././simpleserial/simpleserial.c **** int simpleserial_addcmd(char c, unsigned int len, uint8_t (*fp)(uint8_t, uint8_t, uint8_t, uint8_t*
 142:.././simpleserial/simpleserial.c **** {
 143:.././simpleserial/simpleserial.c **** 	if(num_commands >= MAX_SS_CMDS) {
 144:.././simpleserial/simpleserial.c **** 		putch('a');
 145:.././simpleserial/simpleserial.c **** 		return 1;
 146:.././simpleserial/simpleserial.c **** 	}
 147:.././simpleserial/simpleserial.c **** 
 148:.././simpleserial/simpleserial.c **** 	if(len >= MAX_SS_LEN) {
 149:.././simpleserial/simpleserial.c **** 		putch('b');
 150:.././simpleserial/simpleserial.c **** 		return 1;
 151:.././simpleserial/simpleserial.c **** 	}
 152:.././simpleserial/simpleserial.c **** 
 153:.././simpleserial/simpleserial.c **** 	commands[num_commands].c   = c;
 154:.././simpleserial/simpleserial.c **** 	commands[num_commands].len = len;
 155:.././simpleserial/simpleserial.c **** 	commands[num_commands].fp  = fp;
 156:.././simpleserial/simpleserial.c **** 	num_commands++;
 157:.././simpleserial/simpleserial.c **** 
 158:.././simpleserial/simpleserial.c **** 	return 0;
 159:.././simpleserial/simpleserial.c **** }
 160:.././simpleserial/simpleserial.c **** 
 161:.././simpleserial/simpleserial.c **** void simpleserial_get(void)
 162:.././simpleserial/simpleserial.c **** {
 163:.././simpleserial/simpleserial.c **** 	uint8_t data_buf[MAX_SS_LEN];
 164:.././simpleserial/simpleserial.c **** 	uint8_t err = 0;
 165:.././simpleserial/simpleserial.c **** 
 166:.././simpleserial/simpleserial.c **** 	for (int i = 0; i < 4; i++) {
 167:.././simpleserial/simpleserial.c **** 		data_buf[i] = getch(); //PTR, cmd, scmd, len
 168:.././simpleserial/simpleserial.c **** 		if (data_buf[i] == FRAME_BYTE) {
 169:.././simpleserial/simpleserial.c **** 			err = SS_ERR_FRAME_BYTE;
 170:.././simpleserial/simpleserial.c **** 			goto ERROR;
 171:.././simpleserial/simpleserial.c **** 		}
 172:.././simpleserial/simpleserial.c **** 	}
 173:.././simpleserial/simpleserial.c **** 	uint8_t next_frame = unstuff_data(data_buf, 4);
 174:.././simpleserial/simpleserial.c **** 
 175:.././simpleserial/simpleserial.c **** 	// check for valid command
 176:.././simpleserial/simpleserial.c **** 	uint8_t c = 0;
 177:.././simpleserial/simpleserial.c **** 	for(c = 0; c < num_commands; c++)
 178:.././simpleserial/simpleserial.c **** 	{
 179:.././simpleserial/simpleserial.c **** 		if(commands[c].c == data_buf[1])
 180:.././simpleserial/simpleserial.c **** 			break;
 181:.././simpleserial/simpleserial.c **** 	}
 182:.././simpleserial/simpleserial.c **** 
 183:.././simpleserial/simpleserial.c **** 	if (c == num_commands) {
 184:.././simpleserial/simpleserial.c **** 		err = SS_ERR_CMD;
 185:.././simpleserial/simpleserial.c **** 		goto ERROR;
 186:.././simpleserial/simpleserial.c **** 	}
 187:.././simpleserial/simpleserial.c **** 
 188:.././simpleserial/simpleserial.c **** 	//check that next frame not beyond end of message
 189:.././simpleserial/simpleserial.c **** 	// account for cmd, scmd, len, data, crc, end of frame
 190:.././simpleserial/simpleserial.c **** 	if ((data_buf[3] + 5) < next_frame) {
 191:.././simpleserial/simpleserial.c **** 		err = SS_ERR_LEN;
 192:.././simpleserial/simpleserial.c **** 		goto ERROR;
 193:.././simpleserial/simpleserial.c **** 	}
 194:.././simpleserial/simpleserial.c **** 
 195:.././simpleserial/simpleserial.c **** 	// read in data
 196:.././simpleserial/simpleserial.c **** 	// eq to len + crc + frame end
 197:.././simpleserial/simpleserial.c **** 	int i = 4;
 198:.././simpleserial/simpleserial.c **** 	for (; i < data_buf[3] + 5; i++) {
 199:.././simpleserial/simpleserial.c **** 		data_buf[i] = getch();
 200:.././simpleserial/simpleserial.c **** 		if (data_buf[i] == FRAME_BYTE) {
 201:.././simpleserial/simpleserial.c **** 			err = SS_ERR_FRAME_BYTE;
 202:.././simpleserial/simpleserial.c **** 			goto ERROR;
 203:.././simpleserial/simpleserial.c **** 		}
 204:.././simpleserial/simpleserial.c **** 	}
 205:.././simpleserial/simpleserial.c **** 
 206:.././simpleserial/simpleserial.c **** 	//check that final byte is the FRAME_BYTE
 207:.././simpleserial/simpleserial.c **** 	data_buf[i] = getch();
 208:.././simpleserial/simpleserial.c **** 	if (data_buf[i] != FRAME_BYTE) {
 209:.././simpleserial/simpleserial.c **** 		err = SS_ERR_LEN;
 210:.././simpleserial/simpleserial.c **** 		goto ERROR;
 211:.././simpleserial/simpleserial.c **** 	}
 212:.././simpleserial/simpleserial.c **** 
 213:.././simpleserial/simpleserial.c **** 	//fully unstuff data now
 214:.././simpleserial/simpleserial.c **** 	unstuff_data(data_buf + next_frame, i - next_frame + 1);
 215:.././simpleserial/simpleserial.c **** 
 216:.././simpleserial/simpleserial.c **** 	//calc crc excluding original frame offset and frame end and crc
 217:.././simpleserial/simpleserial.c **** 	uint8_t crc = ss_crc(data_buf+1, i-2);
 218:.././simpleserial/simpleserial.c **** 	if (crc != data_buf[i-1]) {
 219:.././simpleserial/simpleserial.c **** 		err = SS_ERR_CRC;
 220:.././simpleserial/simpleserial.c **** 		goto ERROR;
 221:.././simpleserial/simpleserial.c **** 	}
 222:.././simpleserial/simpleserial.c **** 
 223:.././simpleserial/simpleserial.c **** 	err = commands[c].fp(data_buf[1], data_buf[2], data_buf[3], data_buf+4);
 224:.././simpleserial/simpleserial.c **** 
 225:.././simpleserial/simpleserial.c **** ERROR:
 226:.././simpleserial/simpleserial.c **** 	simpleserial_put('e', 0x01, &err);
 227:.././simpleserial/simpleserial.c **** 	return;
 228:.././simpleserial/simpleserial.c **** }
 229:.././simpleserial/simpleserial.c **** 
 230:.././simpleserial/simpleserial.c **** void simpleserial_put(char c, uint8_t size, uint8_t* output)
 231:.././simpleserial/simpleserial.c **** {
 232:.././simpleserial/simpleserial.c **** 	uint8_t data_buf[MAX_SS_LEN];
 233:.././simpleserial/simpleserial.c **** 	data_buf[0] = 0x00;
 234:.././simpleserial/simpleserial.c **** 	data_buf[1] = c;
 235:.././simpleserial/simpleserial.c **** 	data_buf[2] = size;
 236:.././simpleserial/simpleserial.c **** 	int i = 0;
 237:.././simpleserial/simpleserial.c **** 	for (; i < size; i++) {
 238:.././simpleserial/simpleserial.c **** 		data_buf[i + 3] = output[i];
 239:.././simpleserial/simpleserial.c **** 	}
 240:.././simpleserial/simpleserial.c **** 	data_buf[i + 3] = ss_crc(data_buf+1, size+2);
 241:.././simpleserial/simpleserial.c **** 	data_buf[i + 4] = 0x00;
 242:.././simpleserial/simpleserial.c **** 	stuff_data(data_buf, i + 5);
 243:.././simpleserial/simpleserial.c **** 	for (int i = 0; i < size + 5; i++) {
 244:.././simpleserial/simpleserial.c **** 		putch(data_buf[i]);
 245:.././simpleserial/simpleserial.c **** 	}
 246:.././simpleserial/simpleserial.c **** }
 247:.././simpleserial/simpleserial.c **** 
 248:.././simpleserial/simpleserial.c **** 
 249:.././simpleserial/simpleserial.c **** #else
 250:.././simpleserial/simpleserial.c **** 
 251:.././simpleserial/simpleserial.c **** typedef struct ss_cmd
 252:.././simpleserial/simpleserial.c **** {
 253:.././simpleserial/simpleserial.c **** 	char c;
 254:.././simpleserial/simpleserial.c **** 	unsigned int len;
 255:.././simpleserial/simpleserial.c **** 	uint8_t (*fp)(uint8_t*, uint8_t);
 256:.././simpleserial/simpleserial.c **** 	uint8_t flags;
 257:.././simpleserial/simpleserial.c **** } ss_cmd;
 258:.././simpleserial/simpleserial.c **** static ss_cmd commands[MAX_SS_CMDS];
 259:.././simpleserial/simpleserial.c **** // Callback function for "v" command.
 260:.././simpleserial/simpleserial.c **** // This can exist in v1.0 as long as we don't actually send back an ack ("z")
 261:.././simpleserial/simpleserial.c **** uint8_t check_version(uint8_t *v, uint8_t len)
 262:.././simpleserial/simpleserial.c **** {
  28              		.loc 1 262 1 view -0
  29              		.cfi_startproc
  30              		@ args = 0, pretend = 0, frame = 0
  31              		@ frame_needed = 0, uses_anonymous_args = 0
  32              		@ link register save eliminated.
 263:.././simpleserial/simpleserial.c **** 	return SS_VER;
  33              		.loc 1 263 2 view .LVU1
 264:.././simpleserial/simpleserial.c **** }
  34              		.loc 1 264 1 is_stmt 0 view .LVU2
  35 0000 0120     		movs	r0, #1
  36              	.LVL1:
  37              		.loc 1 264 1 view .LVU3
  38              		@ sp needed
  39 0002 7047     		bx	lr
  40              		.cfi_endproc
  41              	.LFE3:
  43              		.section	.text.led_ok,"ax",%progbits
  44              		.align	1
  45              		.weak	led_ok
  46              		.syntax unified
  47              		.code	16
  48              		.thumb_func
  49              		.fpu softvfp
  51              	led_ok:
  52              	.LFB13:
  53              		.cfi_startproc
  54              		@ args = 0, pretend = 0, frame = 0
  55              		@ frame_needed = 0, uses_anonymous_args = 0
  56              		@ link register save eliminated.
  57              		@ sp needed
  58 0000 7047     		bx	lr
  59              		.cfi_endproc
  60              	.LFE13:
  62              		.section	.text.led_error,"ax",%progbits
  63              		.align	1
  64              		.weak	led_error
  65              		.syntax unified
  66              		.code	16
  67              		.thumb_func
  68              		.fpu softvfp
  70              	led_error:
  71              	.LVL2:
  72              	.LFB1:
  73              		.file 2 ".././hal/hal.h"
   1:.././hal/hal.h **** /*
   2:.././hal/hal.h ****     This file is part of the ChipWhisperer Example Targets
   3:.././hal/hal.h ****     Copyright (C) 2012-2015 NewAE Technology Inc.
   4:.././hal/hal.h **** 
   5:.././hal/hal.h ****     This program is free software: you can redistribute it and/or modify
   6:.././hal/hal.h ****     it under the terms of the GNU General Public License as published by
   7:.././hal/hal.h ****     the Free Software Foundation, either version 3 of the License, or
   8:.././hal/hal.h ****     (at your option) any later version.
   9:.././hal/hal.h **** 
  10:.././hal/hal.h ****     This program is distributed in the hope that it will be useful,
  11:.././hal/hal.h ****     but WITHOUT ANY WARRANTY; without even the implied warranty of
  12:.././hal/hal.h ****     MERCHANTABILITY or FITNESS FOR A PARTICULAR PURPOSE.  See the
  13:.././hal/hal.h ****     GNU General Public License for more details.
  14:.././hal/hal.h **** 
  15:.././hal/hal.h ****     You should have received a copy of the GNU General Public License
  16:.././hal/hal.h ****     along with this program.  If not, see <http://www.gnu.org/licenses/>.
  17:.././hal/hal.h **** */
  18:.././hal/hal.h **** 
  19:.././hal/hal.h **** #ifndef HAL_H_
  20:.././hal/hal.h **** #define HAL_H_
  21:.././hal/hal.h **** 
  22:.././hal/hal.h **** #include <stdint.h>
  23:.././hal/hal.h **** 
  24:.././hal/hal.h **** void platform_init(void);
  25:.././hal/hal.h **** 
  26:.././hal/hal.h **** //PLATFORM Define Types
  27:.././hal/hal.h **** #define CW301_AVR      1
  28:.././hal/hal.h **** #define CW301_XMEGA    2
  29:.././hal/hal.h **** #define CW303          3
  30:.././hal/hal.h **** #define CW304          4
  31:.././hal/hal.h **** #define CW308_MEGARF   8
  32:.././hal/hal.h **** #define CW308_PIC24FJ  10
  33:.././hal/hal.h **** #define CW308_SAM4L    11
  34:.././hal/hal.h **** #define CW308_SI4010   12
  35:.././hal/hal.h **** #define CW308_MPC5748G 13
  36:.././hal/hal.h **** #define CW308_STM32F0  14
  37:.././hal/hal.h **** #define CW308_STM32F1  15
  38:.././hal/hal.h **** #define CW308_STM32F2  16
  39:.././hal/hal.h **** #define CW308_STM32F3  17
  40:.././hal/hal.h **** #define CW308_STM32F4  18
  41:.././hal/hal.h **** #define CW308_CC2538   19
  42:.././hal/hal.h **** #define CW308_K24F     20
  43:.././hal/hal.h **** #define CW308_NRF52840 21
  44:.././hal/hal.h **** #define CW308_AURIX    22
  45:.././hal/hal.h **** #define CW308_SAML11   23
  46:.././hal/hal.h **** #define CW308_EFM32TG11B 24
  47:.././hal/hal.h **** #define CW308_K82F     25
  48:.././hal/hal.h **** #define CW308_LPC55S6X 26
  49:.././hal/hal.h **** #define CW308_PSOC62   27
  50:.././hal/hal.h **** #define CW308_IMXRT1062 28
  51:.././hal/hal.h **** #define CW308_FE310    29
  52:.././hal/hal.h **** #define CW308_EFR32MG21A  30
  53:.././hal/hal.h **** #define CW308_EFM32GG11  31
  54:.././hal/hal.h **** #define CW308_STM32L5  32
  55:.././hal/hal.h **** #define CW308_STM32L4  33
  56:.././hal/hal.h **** #define CW308_RX65N  34
  57:.././hal/hal.h **** #define CW308_MPC5676R 35
  58:.././hal/hal.h **** #define CW308_NEORV32  36
  59:.././hal/hal.h **** #define CW305_IBEX  37
  60:.././hal/hal.h **** 
  61:.././hal/hal.h **** //HAL_TYPE Define Types
  62:.././hal/hal.h **** #define HAL_avr      1
  63:.././hal/hal.h **** #define HAL_xmega    2
  64:.././hal/hal.h **** #define HAL_pic24f   3
  65:.././hal/hal.h **** #define HAL_sam4l    4
  66:.././hal/hal.h **** #define HAL_stm32f0  5
  67:.././hal/hal.h **** #define HAL_stm32f1  6
  68:.././hal/hal.h **** #define HAL_stm32f2  7
  69:.././hal/hal.h **** #define HAL_stm32f3  8
  70:.././hal/hal.h **** #define HAL_stm32f4  9
  71:.././hal/hal.h **** #define HAL_cc2538   10
  72:.././hal/hal.h **** #define HAL_k24f     11
  73:.././hal/hal.h **** #define HAL_nrf52840 12
  74:.././hal/hal.h **** #define HAL_stm32f0_nano 13
  75:.././hal/hal.h **** #define HAL_aurix    14
  76:.././hal/hal.h **** #define HAL_saml11   15
  77:.././hal/hal.h **** #define HAL_efm32tg11b 16
  78:.././hal/hal.h **** #define HAL_k82f     17
  79:.././hal/hal.h **** #define HAL_lpc55s6x 18
  80:.././hal/hal.h **** #define HAL_psoc62   19
  81:.././hal/hal.h **** #define HAL_imxrt1062 20
  82:.././hal/hal.h **** #define HAL_fe310    21
  83:.././hal/hal.h **** #define HAL_efr32mg21a 22
  84:.././hal/hal.h **** #define HAL_efm32gg11 23
  85:.././hal/hal.h **** #define HAL_stm32l5 24
  86:.././hal/hal.h **** #define HAL_stm32l4 25
  87:.././hal/hal.h **** #define HAL_rx65n 26
  88:.././hal/hal.h **** #define HAL_mpc5676r 27
  89:.././hal/hal.h **** #define HAL_neorv32  28
  90:.././hal/hal.h **** #define HAL_sam4s  29
  91:.././hal/hal.h **** #define HAL_ibex  30
  92:.././hal/hal.h **** 
  93:.././hal/hal.h **** #if HAL_TYPE == HAL_avr
  94:.././hal/hal.h ****     #include <avr/io.h>
  95:.././hal/hal.h ****     #include <util/delay.h>
  96:.././hal/hal.h ****     #include "avr/avr_hal.h"
  97:.././hal/hal.h **** #elif HAL_TYPE == HAL_xmega
  98:.././hal/hal.h ****     #include <avr/io.h>
  99:.././hal/hal.h ****     #include <util/delay.h>
 100:.././hal/hal.h ****     #include "xmega/xmega_hal.h"
 101:.././hal/hal.h ****     #include "xmega/avr_compiler.h"
 102:.././hal/hal.h **** #elif HAL_TYPE == HAL_pic24f
 103:.././hal/hal.h ****     #include <xc.h>
 104:.././hal/hal.h ****     #include "pic24f/pic24f_hal.h"
 105:.././hal/hal.h ****     #include "pic24f/uart.h"
 106:.././hal/hal.h **** #elif HAL_TYPE == HAL_sam4l
 107:.././hal/hal.h ****     #include "sam4l/sam4l_hal.h"
 108:.././hal/hal.h **** #elif HAL_TYPE == HAL_stm32f0
 109:.././hal/hal.h **** 	#include "stm32f0/stm32f0_hal.h"
 110:.././hal/hal.h **** #elif HAL_TYPE == HAL_stm32f1
 111:.././hal/hal.h **** 	#include "stm32f1/stm32f1_hal.h"
 112:.././hal/hal.h **** #elif HAL_TYPE == HAL_stm32f2
 113:.././hal/hal.h **** 	#include "stm32f2/stm32f2_hal.h"
 114:.././hal/hal.h **** #elif HAL_TYPE == HAL_stm32f3
 115:.././hal/hal.h **** 	#include "stm32f3/stm32f3_hal.h"
 116:.././hal/hal.h **** 	#ifdef SECCAN
 117:.././hal/hal.h **** 		#include "stm32f3/stm32f3_hal_seccan.h"
 118:.././hal/hal.h **** 	#endif
 119:.././hal/hal.h **** #elif HAL_TYPE == HAL_stm32f4
 120:.././hal/hal.h **** 	#include "stm32f4/stm32f4_hal.h"
 121:.././hal/hal.h **** #elif HAL_TYPE == HAL_cc2538
 122:.././hal/hal.h **** 	#include "cc2538/cc2538_hal.h"
 123:.././hal/hal.h **** #elif HAL_TYPE == HAL_k24f
 124:.././hal/hal.h ****     #include "k24f/k24f_hal.h"
 125:.././hal/hal.h **** #elif HAL_TYPE == HAL_k82f
 126:.././hal/hal.h **** #include "k82f/k82f_hal.h"
 127:.././hal/hal.h **** #elif HAL_TYPE == HAL_nrf52840
 128:.././hal/hal.h ****     #include "nrf52840/nrf52840_hal.h"   
 129:.././hal/hal.h **** #elif HAL_TYPE == HAL_stm32f0_nano
 130:.././hal/hal.h ****     #include "stm32f0/stm32f0_hal.h" 
 131:.././hal/hal.h ****     void led_error(unsigned int status);
 132:.././hal/hal.h ****     void led_ok(unsigned int status);
 133:.././hal/hal.h **** #elif HAL_TYPE == HAL_aurix
 134:.././hal/hal.h ****     #include "aurix/aurix_hal.h"
 135:.././hal/hal.h **** #elif HAL_TYPE == HAL_saml11
 136:.././hal/hal.h ****      #include "saml11/saml11_hal.h"
 137:.././hal/hal.h **** #elif HAL_TYPE == HAL_efm32tg11b
 138:.././hal/hal.h ****      #include "efm32tg11b/efm32tg11b_hal.h"
 139:.././hal/hal.h **** #elif HAL_TYPE == HAL_lpc55s6x
 140:.././hal/hal.h ****      #include "lpc55s6x/lpc55s6x_hal.h"
 141:.././hal/hal.h **** #elif HAL_TYPE == HAL_psoc62
 142:.././hal/hal.h ****     #include "psoc62/psoc62_hal.h"
 143:.././hal/hal.h **** #elif HAL_TYPE == HAL_imxrt1062
 144:.././hal/hal.h ****     #include "imxrt1062/imxrt1062_hal.h"
 145:.././hal/hal.h **** #elif HAL_TYPE == HAL_fe310
 146:.././hal/hal.h ****     #include "fe310/fe310_hal.h"
 147:.././hal/hal.h **** #elif HAL_TYPE == HAL_efr32mg21a
 148:.././hal/hal.h ****     #include "efr32mg21a/efr32mg21a_hal.h"
 149:.././hal/hal.h **** #elif HAL_TYPE == HAL_efm32gg11
 150:.././hal/hal.h ****     #include "efm32gg11/efm32gg11_hal.h"
 151:.././hal/hal.h **** #elif HAL_TYPE == HAL_stm32l5
 152:.././hal/hal.h ****     #include "stm32l5/stm32l5_hal.h"
 153:.././hal/hal.h **** #elif HAL_TYPE == HAL_stm32l4
 154:.././hal/hal.h ****     #include "stm32l4/stm32l4_hal.h"
 155:.././hal/hal.h **** #elif HAL_TYPE == HAL_rx65n
 156:.././hal/hal.h ****     #include "rx65n/rx65n_hal.h"
 157:.././hal/hal.h **** #elif HAL_TYPE == HAL_mpc5676r
 158:.././hal/hal.h ****     #include "mpc5676r/MPC5676R_hal.h"
 159:.././hal/hal.h **** #elif HAL_TYPE == HAL_neorv32
 160:.././hal/hal.h ****     #include "neorv32/neorv32_hal.h"
 161:.././hal/hal.h **** #elif HAL_TYPE == HAL_sam4s
 162:.././hal/hal.h ****     #include "sam4s/sam4s_hal.h"
 163:.././hal/hal.h **** #elif HAL_TYPE == HAL_ibex
 164:.././hal/hal.h ****     #include "ibex/ibex_hal.h"
 165:.././hal/hal.h **** #else
 166:.././hal/hal.h ****     #error "Unsupported HAL Type"
 167:.././hal/hal.h **** #endif
 168:.././hal/hal.h **** 
 169:.././hal/hal.h **** #if PLATFORM == CW308_MEGARF
 170:.././hal/hal.h ****     #undef trigger_setup
 171:.././hal/hal.h ****     #undef trigger_high
 172:.././hal/hal.h ****     #undef trigger_low
 173:.././hal/hal.h ****     #define trigger_setup() DDRD |= 0x02
 174:.././hal/hal.h ****     #define trigger_high()  PORTD |= 0x02
 175:.././hal/hal.h ****     #define trigger_low()   PORTD &= ~(0x02)
 176:.././hal/hal.h ****     
 177:.././hal/hal.h ****     #define HW_AES128_Init();      AES_CTRL = 0x00;
 178:.././hal/hal.h **** 
 179:.././hal/hal.h ****     #define HW_AES128_LoadKey(key);  for (uint8_t i = 0; i < 16; i++){ \
 180:.././hal/hal.h ****                                      AES_KEY = *(key+i); \
 181:.././hal/hal.h ****                                   }
 182:.././hal/hal.h **** 
 183:.././hal/hal.h ****     #define HW_AES128_Enc(pt);  for (uint8_t i = 0; i < 16; i++){ \
 184:.././hal/hal.h ****                                     AES_STATE = *(pt+i); \
 185:.././hal/hal.h ****                                 } \
 186:.././hal/hal.h ****                                   \
 187:.././hal/hal.h ****                                 AES_CTRL |= 1<<AES_REQUEST; \
 188:.././hal/hal.h ****                                   \
 189:.././hal/hal.h ****                                 /*Wait for done  */ \
 190:.././hal/hal.h ****                                 while ((AES_STATUS & (1<<AES_DONE)) == 0){ \
 191:.././hal/hal.h ****                                     ; \
 192:.././hal/hal.h ****                                 } \
 193:.././hal/hal.h ****                                   \
 194:.././hal/hal.h ****                                 for (uint8_t i = 0; i < 16; i++){ \
 195:.././hal/hal.h ****                                     *(pt+i) = AES_STATE; \
 196:.././hal/hal.h ****                                 }
 197:.././hal/hal.h ****     
 198:.././hal/hal.h **** #endif
 199:.././hal/hal.h **** 
 200:.././hal/hal.h **** __attribute__((weak)) void led_ok(unsigned int status)
 201:.././hal/hal.h **** {
 202:.././hal/hal.h **** }
 203:.././hal/hal.h **** 
 204:.././hal/hal.h **** __attribute__((weak)) void led_error(unsigned int status)
 205:.././hal/hal.h **** {
  74              		.loc 2 205 1 is_stmt 1 view -0
  75              		.cfi_startproc
  76              		@ args = 0, pretend = 0, frame = 0
  77              		@ frame_needed = 0, uses_anonymous_args = 0
  78              		@ link register save eliminated.
 206:.././hal/hal.h **** }
  79              		.loc 2 206 1 view .LVU5
  80              		@ sp needed
  81 0000 7047     		bx	lr
  82              		.cfi_endproc
  83              	.LFE1:
  85              		.section	.text.ss_crc,"ax",%progbits
  86              		.align	1
  87              		.global	ss_crc
  88              		.syntax unified
  89              		.code	16
  90              		.thumb_func
  91              		.fpu softvfp
  93              	ss_crc:
  94              	.LVL3:
  95              	.LFB2:
  21:.././simpleserial/simpleserial.c **** 	unsigned int k = 0;
  96              		.loc 1 21 1 view -0
  97              		.cfi_startproc
  98              		@ args = 0, pretend = 0, frame = 0
  99              		@ frame_needed = 0, uses_anonymous_args = 0
  22:.././simpleserial/simpleserial.c **** 	uint8_t crc = 0x00;
 100              		.loc 1 22 2 view .LVU7
  23:.././simpleserial/simpleserial.c **** 	while (len--) {
 101              		.loc 1 23 2 view .LVU8
  24:.././simpleserial/simpleserial.c **** 		crc ^= *buf++;
 102              		.loc 1 24 2 view .LVU9
 103 0000 0300     		movs	r3, r0
  21:.././simpleserial/simpleserial.c **** 	unsigned int k = 0;
 104              		.loc 1 21 1 is_stmt 0 view .LVU10
 105 0002 70B5     		push	{r4, r5, r6, lr}
 106              	.LCFI0:
 107              		.cfi_def_cfa_offset 16
 108              		.cfi_offset 4, -16
 109              		.cfi_offset 5, -12
 110              		.cfi_offset 6, -8
 111              		.cfi_offset 14, -4
 112 0004 4118     		adds	r1, r0, r1
 113              	.LVL4:
  27:.././simpleserial/simpleserial.c **** 		}
 114              		.loc 1 27 34 view .LVU11
 115 0006 4D25     		movs	r5, #77
  23:.././simpleserial/simpleserial.c **** 	while (len--) {
 116              		.loc 1 23 10 view .LVU12
 117 0008 0020     		movs	r0, #0
 118              	.LVL5:
 119              	.L5:
  24:.././simpleserial/simpleserial.c **** 		crc ^= *buf++;
 120              		.loc 1 24 8 is_stmt 1 view .LVU13
  24:.././simpleserial/simpleserial.c **** 		crc ^= *buf++;
 121              		.loc 1 24 8 is_stmt 0 view .LVU14
 122 000a 9942     		cmp	r1, r3
 123 000c 00D1     		bne	.L9
  30:.././simpleserial/simpleserial.c **** 
 124              		.loc 1 30 2 is_stmt 1 view .LVU15
  32:.././simpleserial/simpleserial.c **** 
 125              		.loc 1 32 1 is_stmt 0 view .LVU16
 126              		@ sp needed
 127 000e 70BD     		pop	{r4, r5, r6, pc}
 128              	.L9:
  25:.././simpleserial/simpleserial.c **** 		for (k = 0; k < 8; k++) {
 129              		.loc 1 25 3 is_stmt 1 view .LVU17
 130              	.LVL6:
  25:.././simpleserial/simpleserial.c **** 		for (k = 0; k < 8; k++) {
 131              		.loc 1 25 7 is_stmt 0 view .LVU18
 132 0010 0824     		movs	r4, #8
 133 0012 1A78     		ldrb	r2, [r3]
 134 0014 5040     		eors	r0, r2
 135              	.LVL7:
  26:.././simpleserial/simpleserial.c **** 			crc = crc & 0x80 ? (crc << 1) ^ CW_CRC: crc << 1;
 136              		.loc 1 26 3 is_stmt 1 view .LVU19
  26:.././simpleserial/simpleserial.c **** 			crc = crc & 0x80 ? (crc << 1) ^ CW_CRC: crc << 1;
 137              		.loc 1 26 15 view .LVU20
 138              	.L8:
  27:.././simpleserial/simpleserial.c **** 		}
 139              		.loc 1 27 4 view .LVU21
  27:.././simpleserial/simpleserial.c **** 		}
 140              		.loc 1 27 8 is_stmt 0 view .LVU22
 141 0016 46B2     		sxtb	r6, r0
 142 0018 4200     		lsls	r2, r0, #1
 143 001a D0B2     		uxtb	r0, r2
 144              	.LVL8:
  27:.././simpleserial/simpleserial.c **** 		}
 145              		.loc 1 27 8 view .LVU23
 146 001c 002E     		cmp	r6, #0
 147 001e 01DA     		bge	.L7
  27:.././simpleserial/simpleserial.c **** 		}
 148              		.loc 1 27 34 discriminator 1 view .LVU24
 149 0020 6A40     		eors	r2, r5
  27:.././simpleserial/simpleserial.c **** 		}
 150              		.loc 1 27 8 discriminator 1 view .LVU25
 151 0022 D0B2     		uxtb	r0, r2
 152              	.L7:
 153              	.LVL9:
  26:.././simpleserial/simpleserial.c **** 			crc = crc & 0x80 ? (crc << 1) ^ CW_CRC: crc << 1;
 154              		.loc 1 26 22 is_stmt 1 discriminator 4 view .LVU26
  26:.././simpleserial/simpleserial.c **** 			crc = crc & 0x80 ? (crc << 1) ^ CW_CRC: crc << 1;
 155              		.loc 1 26 15 discriminator 4 view .LVU27
  26:.././simpleserial/simpleserial.c **** 			crc = crc & 0x80 ? (crc << 1) ^ CW_CRC: crc << 1;
 156              		.loc 1 26 3 is_stmt 0 discriminator 4 view .LVU28
 157 0024 013C     		subs	r4, r4, #1
 158              	.LVL10:
  26:.././simpleserial/simpleserial.c **** 			crc = crc & 0x80 ? (crc << 1) ^ CW_CRC: crc << 1;
 159              		.loc 1 26 3 discriminator 4 view .LVU29
 160 0026 002C     		cmp	r4, #0
 161 0028 F5D1     		bne	.L8
 162 002a 0133     		adds	r3, r3, #1
 163              	.LVL11:
  26:.././simpleserial/simpleserial.c **** 			crc = crc & 0x80 ? (crc << 1) ^ CW_CRC: crc << 1;
 164              		.loc 1 26 3 discriminator 4 view .LVU30
 165 002c EDE7     		b	.L5
 166              		.cfi_endproc
 167              	.LFE2:
 169              		.section	.text.hex_decode,"ax",%progbits
 170              		.align	1
 171              		.global	hex_decode
 172              		.syntax unified
 173              		.code	16
 174              		.thumb_func
 175              		.fpu softvfp
 177              	hex_decode:
 178              	.LVL12:
 179              	.LFB6:
 265:.././simpleserial/simpleserial.c **** 
 266:.././simpleserial/simpleserial.c **** uint8_t ss_num_commands(uint8_t *x, uint8_t len)
 267:.././simpleserial/simpleserial.c **** {
 268:.././simpleserial/simpleserial.c ****     uint8_t ncmds = num_commands & 0xFF;
 269:.././simpleserial/simpleserial.c ****     simpleserial_put('r', 0x01, &ncmds);
 270:.././simpleserial/simpleserial.c ****     return 0x00;
 271:.././simpleserial/simpleserial.c **** }
 272:.././simpleserial/simpleserial.c **** 
 273:.././simpleserial/simpleserial.c **** typedef struct ss_cmd_repr {
 274:.././simpleserial/simpleserial.c ****     uint8_t c;
 275:.././simpleserial/simpleserial.c ****     uint8_t len;
 276:.././simpleserial/simpleserial.c ****     uint8_t flags;
 277:.././simpleserial/simpleserial.c **** } ss_cmd_repr;
 278:.././simpleserial/simpleserial.c **** 
 279:.././simpleserial/simpleserial.c **** uint8_t ss_get_commands(uint8_t *x, uint8_t len)
 280:.././simpleserial/simpleserial.c **** {
 281:.././simpleserial/simpleserial.c ****     ss_cmd_repr repr_cmd_buf[MAX_SS_CMDS];
 282:.././simpleserial/simpleserial.c ****     for (uint8_t i = 0; i < (num_commands & 0xFF); i++) {
 283:.././simpleserial/simpleserial.c ****         repr_cmd_buf[i].c = commands[i].c;
 284:.././simpleserial/simpleserial.c ****         repr_cmd_buf[i].len = commands[i].len;
 285:.././simpleserial/simpleserial.c ****         repr_cmd_buf[i].flags = commands[i].flags;
 286:.././simpleserial/simpleserial.c ****     }
 287:.././simpleserial/simpleserial.c **** 
 288:.././simpleserial/simpleserial.c ****     simpleserial_put('r', num_commands * 0x03, (void *) repr_cmd_buf);
 289:.././simpleserial/simpleserial.c ****     return 0x00;
 290:.././simpleserial/simpleserial.c **** }
 291:.././simpleserial/simpleserial.c **** 
 292:.././simpleserial/simpleserial.c **** static char hex_lookup[16] =
 293:.././simpleserial/simpleserial.c **** {
 294:.././simpleserial/simpleserial.c **** 	'0', '1', '2', '3', '4', '5', '6', '7',
 295:.././simpleserial/simpleserial.c **** 	'8', '9', 'A', 'B', 'C', 'D', 'E', 'F'
 296:.././simpleserial/simpleserial.c **** };
 297:.././simpleserial/simpleserial.c **** 
 298:.././simpleserial/simpleserial.c **** int hex_decode(int len, char* ascii_buf, uint8_t* data_buf)
 299:.././simpleserial/simpleserial.c **** {
 180              		.loc 1 299 1 is_stmt 1 view -0
 181              		.cfi_startproc
 182              		@ args = 0, pretend = 0, frame = 0
 183              		@ frame_needed = 0, uses_anonymous_args = 0
 300:.././simpleserial/simpleserial.c **** 	for(int i = 0; i < len; i++)
 184              		.loc 1 300 2 view .LVU32
 185              	.LBB2:
 186              		.loc 1 300 6 view .LVU33
 187              		.loc 1 300 6 is_stmt 0 view .LVU34
 188              	.LBE2:
 299:.././simpleserial/simpleserial.c **** 	for(int i = 0; i < len; i++)
 189              		.loc 1 299 1 view .LVU35
 190 0000 70B5     		push	{r4, r5, r6, lr}
 191              	.LCFI1:
 192              		.cfi_def_cfa_offset 16
 193              		.cfi_offset 4, -16
 194              		.cfi_offset 5, -12
 195              		.cfi_offset 6, -8
 196              		.cfi_offset 14, -4
 197              	.LBB6:
 198              		.loc 1 300 2 view .LVU36
 199 0002 1400     		movs	r4, r2
 200              	.LVL13:
 201              	.L12:
 202              		.loc 1 300 17 is_stmt 1 discriminator 1 view .LVU37
 203              		.loc 1 300 2 is_stmt 0 discriminator 1 view .LVU38
 204 0004 A31A     		subs	r3, r4, r2
 205 0006 9842     		cmp	r0, r3
 206 0008 01DC     		bgt	.L22
 207              	.LBE6:
 301:.././simpleserial/simpleserial.c **** 	{
 302:.././simpleserial/simpleserial.c **** 		char n_hi = ascii_buf[2*i];
 303:.././simpleserial/simpleserial.c **** 		char n_lo = ascii_buf[2*i+1];
 304:.././simpleserial/simpleserial.c **** 
 305:.././simpleserial/simpleserial.c **** 		if(n_lo >= '0' && n_lo <= '9')
 306:.././simpleserial/simpleserial.c **** 			data_buf[i] = n_lo - '0';
 307:.././simpleserial/simpleserial.c **** 		else if(n_lo >= 'A' && n_lo <= 'F')
 308:.././simpleserial/simpleserial.c **** 			data_buf[i] = n_lo - 'A' + 10;
 309:.././simpleserial/simpleserial.c **** 		else if(n_lo >= 'a' && n_lo <= 'f')
 310:.././simpleserial/simpleserial.c **** 			data_buf[i] = n_lo - 'a' + 10;
 311:.././simpleserial/simpleserial.c **** 		else
 312:.././simpleserial/simpleserial.c **** 			return 1;
 313:.././simpleserial/simpleserial.c **** 
 314:.././simpleserial/simpleserial.c **** 		if(n_hi >= '0' && n_hi <= '9')
 315:.././simpleserial/simpleserial.c **** 			data_buf[i] |= (n_hi - '0') << 4;
 316:.././simpleserial/simpleserial.c **** 		else if(n_hi >= 'A' && n_hi <= 'F')
 317:.././simpleserial/simpleserial.c **** 			data_buf[i] |= (n_hi - 'A' + 10) << 4;
 318:.././simpleserial/simpleserial.c **** 		else if(n_hi >= 'a' && n_hi <= 'f')
 319:.././simpleserial/simpleserial.c **** 			data_buf[i] |= (n_hi - 'a' + 10) << 4;
 320:.././simpleserial/simpleserial.c **** 		else
 321:.././simpleserial/simpleserial.c **** 			return 1;
 322:.././simpleserial/simpleserial.c **** 	}
 323:.././simpleserial/simpleserial.c **** 
 324:.././simpleserial/simpleserial.c **** 	return 0;
 208              		.loc 1 324 9 view .LVU39
 209 000a 0020     		movs	r0, #0
 210              	.LVL14:
 211              		.loc 1 324 9 view .LVU40
 212 000c 1FE0     		b	.L11
 213              	.LVL15:
 214              	.L22:
 215              	.LBB7:
 216              	.LBB3:
 302:.././simpleserial/simpleserial.c **** 		char n_lo = ascii_buf[2*i+1];
 217              		.loc 1 302 3 is_stmt 1 view .LVU41
 303:.././simpleserial/simpleserial.c **** 
 218              		.loc 1 303 8 is_stmt 0 view .LVU42
 219 000e 4D78     		ldrb	r5, [r1, #1]
 302:.././simpleserial/simpleserial.c **** 		char n_lo = ascii_buf[2*i+1];
 220              		.loc 1 302 8 view .LVU43
 221 0010 0B78     		ldrb	r3, [r1]
 222              	.LVL16:
 303:.././simpleserial/simpleserial.c **** 
 223              		.loc 1 303 3 is_stmt 1 view .LVU44
 305:.././simpleserial/simpleserial.c **** 			data_buf[i] = n_lo - '0';
 224              		.loc 1 305 3 view .LVU45
 305:.././simpleserial/simpleserial.c **** 			data_buf[i] = n_lo - '0';
 225              		.loc 1 305 18 is_stmt 0 view .LVU46
 226 0012 2E00     		movs	r6, r5
 227 0014 303E     		subs	r6, r6, #48
 228 0016 F6B2     		uxtb	r6, r6
 305:.././simpleserial/simpleserial.c **** 			data_buf[i] = n_lo - '0';
 229              		.loc 1 305 5 view .LVU47
 230 0018 092E     		cmp	r6, #9
 231 001a 0CD8     		bhi	.L13
 306:.././simpleserial/simpleserial.c **** 		else if(n_lo >= 'A' && n_lo <= 'F')
 232              		.loc 1 306 4 is_stmt 1 view .LVU48
 306:.././simpleserial/simpleserial.c **** 		else if(n_lo >= 'A' && n_lo <= 'F')
 233              		.loc 1 306 16 is_stmt 0 view .LVU49
 234 001c 2670     		strb	r6, [r4]
 235              	.LVL17:
 236              	.L14:
 314:.././simpleserial/simpleserial.c **** 			data_buf[i] |= (n_hi - '0') << 4;
 237              		.loc 1 314 3 is_stmt 1 view .LVU50
 314:.././simpleserial/simpleserial.c **** 			data_buf[i] |= (n_hi - '0') << 4;
 238              		.loc 1 314 18 is_stmt 0 view .LVU51
 239 001e 1D00     		movs	r5, r3
 240 0020 303D     		subs	r5, r5, #48
 314:.././simpleserial/simpleserial.c **** 			data_buf[i] |= (n_hi - '0') << 4;
 241              		.loc 1 314 5 view .LVU52
 242 0022 EEB2     		uxtb	r6, r5
 243 0024 092E     		cmp	r6, #9
 244 0026 15D8     		bhi	.L18
 315:.././simpleserial/simpleserial.c **** 		else if(n_hi >= 'A' && n_hi <= 'F')
 245              		.loc 1 315 4 is_stmt 1 view .LVU53
 315:.././simpleserial/simpleserial.c **** 		else if(n_hi >= 'A' && n_hi <= 'F')
 246              		.loc 1 315 16 is_stmt 0 view .LVU54
 247 0028 2378     		ldrb	r3, [r4]
 248              	.LVL18:
 315:.././simpleserial/simpleserial.c **** 		else if(n_hi >= 'A' && n_hi <= 'F')
 249              		.loc 1 315 32 view .LVU55
 250 002a 2D01     		lsls	r5, r5, #4
 251              	.LVL19:
 315:.././simpleserial/simpleserial.c **** 		else if(n_hi >= 'A' && n_hi <= 'F')
 252              		.loc 1 315 16 view .LVU56
 253 002c 1D43     		orrs	r5, r3
 254 002e 2570     		strb	r5, [r4]
 255              	.L19:
 315:.././simpleserial/simpleserial.c **** 		else if(n_hi >= 'A' && n_hi <= 'F')
 256              		.loc 1 315 16 view .LVU57
 257              	.LBE3:
 300:.././simpleserial/simpleserial.c **** 	{
 258              		.loc 1 300 26 is_stmt 1 discriminator 2 view .LVU58
 259              	.LVL20:
 300:.././simpleserial/simpleserial.c **** 	{
 260              		.loc 1 300 26 is_stmt 0 discriminator 2 view .LVU59
 261 0030 0134     		adds	r4, r4, #1
 262              	.LVL21:
 300:.././simpleserial/simpleserial.c **** 	{
 263              		.loc 1 300 26 discriminator 2 view .LVU60
 264 0032 0231     		adds	r1, r1, #2
 265 0034 E6E7     		b	.L12
 266              	.LVL22:
 267              	.L13:
 268              	.LBB4:
 307:.././simpleserial/simpleserial.c **** 			data_buf[i] = n_lo - 'A' + 10;
 269              		.loc 1 307 8 is_stmt 1 view .LVU61
 307:.././simpleserial/simpleserial.c **** 			data_buf[i] = n_lo - 'A' + 10;
 270              		.loc 1 307 10 is_stmt 0 view .LVU62
 271 0036 2E00     		movs	r6, r5
 272 0038 413E     		subs	r6, r6, #65
 273 003a 052E     		cmp	r6, #5
 274 003c 02D8     		bhi	.L15
 308:.././simpleserial/simpleserial.c **** 		else if(n_lo >= 'a' && n_lo <= 'f')
 275              		.loc 1 308 4 is_stmt 1 view .LVU63
 308:.././simpleserial/simpleserial.c **** 		else if(n_lo >= 'a' && n_lo <= 'f')
 276              		.loc 1 308 29 is_stmt 0 view .LVU64
 277 003e 373D     		subs	r5, r5, #55
 278              	.LVL23:
 279              	.L23:
 310:.././simpleserial/simpleserial.c **** 		else
 280              		.loc 1 310 16 view .LVU65
 281 0040 2570     		strb	r5, [r4]
 282              	.LVL24:
 310:.././simpleserial/simpleserial.c **** 		else
 283              		.loc 1 310 16 view .LVU66
 284 0042 ECE7     		b	.L14
 285              	.LVL25:
 286              	.L15:
 309:.././simpleserial/simpleserial.c **** 			data_buf[i] = n_lo - 'a' + 10;
 287              		.loc 1 309 8 is_stmt 1 view .LVU67
 309:.././simpleserial/simpleserial.c **** 			data_buf[i] = n_lo - 'a' + 10;
 288              		.loc 1 309 10 is_stmt 0 view .LVU68
 289 0044 2E00     		movs	r6, r5
 290 0046 613E     		subs	r6, r6, #97
 291 0048 052E     		cmp	r6, #5
 292 004a 01D9     		bls	.L16
 293              	.LVL26:
 294              	.L21:
 312:.././simpleserial/simpleserial.c **** 
 295              		.loc 1 312 11 view .LVU69
 296 004c 0120     		movs	r0, #1
 297              	.LVL27:
 298              	.L11:
 312:.././simpleserial/simpleserial.c **** 
 299              		.loc 1 312 11 view .LVU70
 300              	.LBE4:
 301              	.LBE7:
 325:.././simpleserial/simpleserial.c **** }
 302              		.loc 1 325 1 view .LVU71
 303              		@ sp needed
 304              	.LVL28:
 305              		.loc 1 325 1 view .LVU72
 306 004e 70BD     		pop	{r4, r5, r6, pc}
 307              	.LVL29:
 308              	.L16:
 309              	.LBB8:
 310              	.LBB5:
 310:.././simpleserial/simpleserial.c **** 		else
 311              		.loc 1 310 4 is_stmt 1 view .LVU73
 310:.././simpleserial/simpleserial.c **** 		else
 312              		.loc 1 310 29 is_stmt 0 view .LVU74
 313 0050 573D     		subs	r5, r5, #87
 314              	.LVL30:
 310:.././simpleserial/simpleserial.c **** 		else
 315              		.loc 1 310 29 view .LVU75
 316 0052 F5E7     		b	.L23
 317              	.LVL31:
 318              	.L18:
 316:.././simpleserial/simpleserial.c **** 			data_buf[i] |= (n_hi - 'A' + 10) << 4;
 319              		.loc 1 316 8 is_stmt 1 view .LVU76
 316:.././simpleserial/simpleserial.c **** 			data_buf[i] |= (n_hi - 'A' + 10) << 4;
 320              		.loc 1 316 10 is_stmt 0 view .LVU77
 321 0054 1D00     		movs	r5, r3
 322 0056 413D     		subs	r5, r5, #65
 323 0058 052D     		cmp	r5, #5
 324 005a 05D8     		bhi	.L20
 317:.././simpleserial/simpleserial.c **** 		else if(n_hi >= 'a' && n_hi <= 'f')
 325              		.loc 1 317 4 is_stmt 1 view .LVU78
 317:.././simpleserial/simpleserial.c **** 		else if(n_hi >= 'a' && n_hi <= 'f')
 326              		.loc 1 317 31 is_stmt 0 view .LVU79
 327 005c 373B     		subs	r3, r3, #55
 328              	.LVL32:
 329              	.L24:
 319:.././simpleserial/simpleserial.c **** 		else
 330              		.loc 1 319 16 view .LVU80
 331 005e 2578     		ldrb	r5, [r4]
 319:.././simpleserial/simpleserial.c **** 		else
 332              		.loc 1 319 37 view .LVU81
 333 0060 1B01     		lsls	r3, r3, #4
 319:.././simpleserial/simpleserial.c **** 		else
 334              		.loc 1 319 16 view .LVU82
 335 0062 2B43     		orrs	r3, r5
 336 0064 2370     		strb	r3, [r4]
 337 0066 E3E7     		b	.L19
 338              	.LVL33:
 339              	.L20:
 318:.././simpleserial/simpleserial.c **** 			data_buf[i] |= (n_hi - 'a' + 10) << 4;
 340              		.loc 1 318 8 is_stmt 1 view .LVU83
 318:.././simpleserial/simpleserial.c **** 			data_buf[i] |= (n_hi - 'a' + 10) << 4;
 341              		.loc 1 318 10 is_stmt 0 view .LVU84
 342 0068 1D00     		movs	r5, r3
 343 006a 613D     		subs	r5, r5, #97
 344 006c 052D     		cmp	r5, #5
 345 006e EDD8     		bhi	.L21
 319:.././simpleserial/simpleserial.c **** 		else
 346              		.loc 1 319 4 is_stmt 1 view .LVU85
 319:.././simpleserial/simpleserial.c **** 		else
 347              		.loc 1 319 31 is_stmt 0 view .LVU86
 348 0070 573B     		subs	r3, r3, #87
 349              	.LVL34:
 319:.././simpleserial/simpleserial.c **** 		else
 350              		.loc 1 319 31 view .LVU87
 351 0072 F4E7     		b	.L24
 352              	.LBE5:
 353              	.LBE8:
 354              		.cfi_endproc
 355              	.LFE6:
 357              		.section	.text.simpleserial_addcmd_flags,"ax",%progbits
 358              		.align	1
 359              		.global	simpleserial_addcmd_flags
 360              		.syntax unified
 361              		.code	16
 362              		.thumb_func
 363              		.fpu softvfp
 365              	simpleserial_addcmd_flags:
 366              	.LVL35:
 367              	.LFB9:
 326:.././simpleserial/simpleserial.c **** 
 327:.././simpleserial/simpleserial.c **** 
 328:.././simpleserial/simpleserial.c **** 
 329:.././simpleserial/simpleserial.c **** // Set up the SimpleSerial module by preparing internal commands
 330:.././simpleserial/simpleserial.c **** // This just adds the "v" command for now...
 331:.././simpleserial/simpleserial.c **** void simpleserial_init()
 332:.././simpleserial/simpleserial.c **** {
 333:.././simpleserial/simpleserial.c **** 	simpleserial_addcmd('v', 0, check_version);
 334:.././simpleserial/simpleserial.c ****     simpleserial_addcmd('w', 0, ss_get_commands);
 335:.././simpleserial/simpleserial.c ****     simpleserial_addcmd('y', 0, ss_num_commands);
 336:.././simpleserial/simpleserial.c **** }
 337:.././simpleserial/simpleserial.c **** 
 338:.././simpleserial/simpleserial.c **** int simpleserial_addcmd(char c, unsigned int len, uint8_t (*fp)(uint8_t*, uint8_t))
 339:.././simpleserial/simpleserial.c **** {
 340:.././simpleserial/simpleserial.c **** 	return simpleserial_addcmd_flags(c, len, fp, CMD_FLAG_NONE);
 341:.././simpleserial/simpleserial.c **** }
 342:.././simpleserial/simpleserial.c **** 
 343:.././simpleserial/simpleserial.c **** int simpleserial_addcmd_flags(char c, unsigned int len, uint8_t (*fp)(uint8_t*, uint8_t), uint8_t f
 344:.././simpleserial/simpleserial.c **** {
 368              		.loc 1 344 1 is_stmt 1 view -0
 369              		.cfi_startproc
 370              		@ args = 0, pretend = 0, frame = 0
 371              		@ frame_needed = 0, uses_anonymous_args = 0
 345:.././simpleserial/simpleserial.c **** 	if(num_commands >= MAX_SS_CMDS)
 372              		.loc 1 345 2 view .LVU89
 344:.././simpleserial/simpleserial.c **** 	if(num_commands >= MAX_SS_CMDS)
 373              		.loc 1 344 1 is_stmt 0 view .LVU90
 374 0000 F0B5     		push	{r4, r5, r6, r7, lr}
 375              	.LCFI2:
 376              		.cfi_def_cfa_offset 20
 377              		.cfi_offset 4, -20
 378              		.cfi_offset 5, -16
 379              		.cfi_offset 6, -12
 380              		.cfi_offset 7, -8
 381              		.cfi_offset 14, -4
 382              		.loc 1 345 18 view .LVU91
 383 0002 094E     		ldr	r6, .L29
 344:.././simpleserial/simpleserial.c **** 	if(num_commands >= MAX_SS_CMDS)
 384              		.loc 1 344 1 view .LVU92
 385 0004 0500     		movs	r5, r0
 386              		.loc 1 345 18 view .LVU93
 387 0006 3468     		ldr	r4, [r6]
 346:.././simpleserial/simpleserial.c **** 		return 1;
 388              		.loc 1 346 10 view .LVU94
 389 0008 0120     		movs	r0, #1
 390              	.LVL36:
 345:.././simpleserial/simpleserial.c **** 	if(num_commands >= MAX_SS_CMDS)
 391              		.loc 1 345 4 view .LVU95
 392 000a 0F2C     		cmp	r4, #15
 393 000c 0BDC     		bgt	.L25
 347:.././simpleserial/simpleserial.c **** 
 348:.././simpleserial/simpleserial.c **** 	if(len >= MAX_SS_LEN)
 394              		.loc 1 348 2 is_stmt 1 view .LVU96
 395              		.loc 1 348 4 is_stmt 0 view .LVU97
 396 000e FF29     		cmp	r1, #255
 397 0010 09D8     		bhi	.L25
 349:.././simpleserial/simpleserial.c **** 		return 1;
 350:.././simpleserial/simpleserial.c **** 
 351:.././simpleserial/simpleserial.c **** 	commands[num_commands].c   = c;
 398              		.loc 1 351 2 is_stmt 1 view .LVU98
 399              		.loc 1 351 29 is_stmt 0 view .LVU99
 400 0012 0648     		ldr	r0, .L29+4
 401 0014 2701     		lsls	r7, r4, #4
 402 0016 3D54     		strb	r5, [r7, r0]
 352:.././simpleserial/simpleserial.c **** 	commands[num_commands].len = len;
 403              		.loc 1 352 2 is_stmt 1 view .LVU100
 404              		.loc 1 352 29 is_stmt 0 view .LVU101
 405 0018 C019     		adds	r0, r0, r7
 406 001a 4160     		str	r1, [r0, #4]
 353:.././simpleserial/simpleserial.c **** 	commands[num_commands].fp  = fp;
 407              		.loc 1 353 2 is_stmt 1 view .LVU102
 408              		.loc 1 353 29 is_stmt 0 view .LVU103
 409 001c 8260     		str	r2, [r0, #8]
 354:.././simpleserial/simpleserial.c **** 	commands[num_commands].flags = fl;
 410              		.loc 1 354 2 is_stmt 1 view .LVU104
 411              		.loc 1 354 31 is_stmt 0 view .LVU105
 412 001e 0373     		strb	r3, [r0, #12]
 355:.././simpleserial/simpleserial.c **** 	num_commands++;
 413              		.loc 1 355 2 is_stmt 1 view .LVU106
 356:.././simpleserial/simpleserial.c **** 
 357:.././simpleserial/simpleserial.c **** 	return 0;
 414              		.loc 1 357 9 is_stmt 0 view .LVU107
 415 0020 0020     		movs	r0, #0
 355:.././simpleserial/simpleserial.c **** 	num_commands++;
 416              		.loc 1 355 14 view .LVU108
 417 0022 0134     		adds	r4, r4, #1
 418 0024 3460     		str	r4, [r6]
 419              		.loc 1 357 2 is_stmt 1 view .LVU109
 420              	.L25:
 358:.././simpleserial/simpleserial.c **** }
 421              		.loc 1 358 1 is_stmt 0 view .LVU110
 422              		@ sp needed
 423 0026 F0BD     		pop	{r4, r5, r6, r7, pc}
 424              	.L30:
 425              		.align	2
 426              	.L29:
 427 0028 00000000 		.word	.LANCHOR0
 428 002c 04000000 		.word	commands
 429              		.cfi_endproc
 430              	.LFE9:
 432              		.section	.text.simpleserial_addcmd,"ax",%progbits
 433              		.align	1
 434              		.global	simpleserial_addcmd
 435              		.syntax unified
 436              		.code	16
 437              		.thumb_func
 438              		.fpu softvfp
 440              	simpleserial_addcmd:
 441              	.LVL37:
 442              	.LFB8:
 339:.././simpleserial/simpleserial.c **** 	return simpleserial_addcmd_flags(c, len, fp, CMD_FLAG_NONE);
 443              		.loc 1 339 1 is_stmt 1 view -0
 444              		.cfi_startproc
 445              		@ args = 0, pretend = 0, frame = 0
 446              		@ frame_needed = 0, uses_anonymous_args = 0
 340:.././simpleserial/simpleserial.c **** }
 447              		.loc 1 340 2 view .LVU112
 339:.././simpleserial/simpleserial.c **** 	return simpleserial_addcmd_flags(c, len, fp, CMD_FLAG_NONE);
 448              		.loc 1 339 1 is_stmt 0 view .LVU113
 449 0000 10B5     		push	{r4, lr}
 450              	.LCFI3:
 451              		.cfi_def_cfa_offset 8
 452              		.cfi_offset 4, -8
 453              		.cfi_offset 14, -4
 340:.././simpleserial/simpleserial.c **** }
 454              		.loc 1 340 9 view .LVU114
 455 0002 0023     		movs	r3, #0
 341:.././simpleserial/simpleserial.c **** 
 456              		.loc 1 341 1 view .LVU115
 457              		@ sp needed
 340:.././simpleserial/simpleserial.c **** }
 458              		.loc 1 340 9 view .LVU116
 459 0004 FFF7FEFF 		bl	simpleserial_addcmd_flags
 460              	.LVL38:
 341:.././simpleserial/simpleserial.c **** 
 461              		.loc 1 341 1 view .LVU117
 462 0008 10BD     		pop	{r4, pc}
 463              		.cfi_endproc
 464              	.LFE8:
 466              		.section	.text.simpleserial_init,"ax",%progbits
 467              		.align	1
 468              		.global	simpleserial_init
 469              		.syntax unified
 470              		.code	16
 471              		.thumb_func
 472              		.fpu softvfp
 474              	simpleserial_init:
 475              	.LFB7:
 332:.././simpleserial/simpleserial.c **** 	simpleserial_addcmd('v', 0, check_version);
 476              		.loc 1 332 1 is_stmt 1 view -0
 477              		.cfi_startproc
 478              		@ args = 0, pretend = 0, frame = 0
 479              		@ frame_needed = 0, uses_anonymous_args = 0
 333:.././simpleserial/simpleserial.c ****     simpleserial_addcmd('w', 0, ss_get_commands);
 480              		.loc 1 333 2 view .LVU119
 332:.././simpleserial/simpleserial.c **** 	simpleserial_addcmd('v', 0, check_version);
 481              		.loc 1 332 1 is_stmt 0 view .LVU120
 482 0000 10B5     		push	{r4, lr}
 483              	.LCFI4:
 484              		.cfi_def_cfa_offset 8
 485              		.cfi_offset 4, -8
 486              		.cfi_offset 14, -4
 333:.././simpleserial/simpleserial.c ****     simpleserial_addcmd('w', 0, ss_get_commands);
 487              		.loc 1 333 2 view .LVU121
 488 0002 0021     		movs	r1, #0
 336:.././simpleserial/simpleserial.c **** 
 489              		.loc 1 336 1 view .LVU122
 490              		@ sp needed
 333:.././simpleserial/simpleserial.c ****     simpleserial_addcmd('w', 0, ss_get_commands);
 491              		.loc 1 333 2 view .LVU123
 492 0004 074A     		ldr	r2, .L33
 493 0006 7620     		movs	r0, #118
 494 0008 FFF7FEFF 		bl	simpleserial_addcmd
 495              	.LVL39:
 334:.././simpleserial/simpleserial.c ****     simpleserial_addcmd('y', 0, ss_num_commands);
 496              		.loc 1 334 5 is_stmt 1 view .LVU124
 497 000c 0021     		movs	r1, #0
 498 000e 064A     		ldr	r2, .L33+4
 499 0010 7720     		movs	r0, #119
 500 0012 FFF7FEFF 		bl	simpleserial_addcmd
 501              	.LVL40:
 335:.././simpleserial/simpleserial.c **** }
 502              		.loc 1 335 5 view .LVU125
 503 0016 0021     		movs	r1, #0
 504 0018 7920     		movs	r0, #121
 505 001a 044A     		ldr	r2, .L33+8
 506 001c FFF7FEFF 		bl	simpleserial_addcmd
 507              	.LVL41:
 336:.././simpleserial/simpleserial.c **** 
 508              		.loc 1 336 1 is_stmt 0 view .LVU126
 509 0020 10BD     		pop	{r4, pc}
 510              	.L34:
 511 0022 C046     		.align	2
 512              	.L33:
 513 0024 00000000 		.word	check_version
 514 0028 00000000 		.word	ss_get_commands
 515 002c 00000000 		.word	ss_num_commands
 516              		.cfi_endproc
 517              	.LFE7:
 519              		.section	.text.simpleserial_put,"ax",%progbits
 520              		.align	1
 521              		.global	simpleserial_put
 522              		.syntax unified
 523              		.code	16
 524              		.thumb_func
 525              		.fpu softvfp
 527              	simpleserial_put:
 528              	.LVL42:
 529              	.LFB11:
 359:.././simpleserial/simpleserial.c **** 
 360:.././simpleserial/simpleserial.c **** void simpleserial_get(void)
 361:.././simpleserial/simpleserial.c **** {
 362:.././simpleserial/simpleserial.c **** 	char ascii_buf[2*MAX_SS_LEN];
 363:.././simpleserial/simpleserial.c **** 	uint8_t data_buf[MAX_SS_LEN];
 364:.././simpleserial/simpleserial.c **** 	char c;
 365:.././simpleserial/simpleserial.c **** 
 366:.././simpleserial/simpleserial.c **** 	// Find which command we're receiving
 367:.././simpleserial/simpleserial.c **** 	c = getch();
 368:.././simpleserial/simpleserial.c **** 
 369:.././simpleserial/simpleserial.c **** 	int cmd;
 370:.././simpleserial/simpleserial.c **** 	for(cmd = 0; cmd < num_commands; cmd++)
 371:.././simpleserial/simpleserial.c **** 	{
 372:.././simpleserial/simpleserial.c **** 		if(commands[cmd].c == c)
 373:.././simpleserial/simpleserial.c **** 			break;
 374:.././simpleserial/simpleserial.c **** 	}
 375:.././simpleserial/simpleserial.c **** 
 376:.././simpleserial/simpleserial.c **** 	// If we didn't find a match, give up right away
 377:.././simpleserial/simpleserial.c **** 	if(cmd == num_commands)
 378:.././simpleserial/simpleserial.c **** 		return;
 379:.././simpleserial/simpleserial.c **** 
 380:.././simpleserial/simpleserial.c **** 	// If flag CMD_FLAG_LEN is set, the next byte indicates the sent length
 381:.././simpleserial/simpleserial.c **** 	if ((commands[cmd].flags & CMD_FLAG_LEN) != 0)
 382:.././simpleserial/simpleserial.c **** 	{
 383:.././simpleserial/simpleserial.c **** 		uint8_t l = 0;
 384:.././simpleserial/simpleserial.c **** 		char buff[2];
 385:.././simpleserial/simpleserial.c **** 		buff[0] = getch();
 386:.././simpleserial/simpleserial.c **** 		buff[1] = getch();
 387:.././simpleserial/simpleserial.c **** 		if (hex_decode(1, buff, &l))
 388:.././simpleserial/simpleserial.c **** 			return;
 389:.././simpleserial/simpleserial.c **** 		commands[cmd].len = l;
 390:.././simpleserial/simpleserial.c **** 	}
 391:.././simpleserial/simpleserial.c **** 
 392:.././simpleserial/simpleserial.c **** 	// Receive characters until we fill the ASCII buffer
 393:.././simpleserial/simpleserial.c **** 	for(int i = 0; i < 2*commands[cmd].len; i++)
 394:.././simpleserial/simpleserial.c **** 	{
 395:.././simpleserial/simpleserial.c **** 		c = getch();
 396:.././simpleserial/simpleserial.c **** 
 397:.././simpleserial/simpleserial.c **** 		// Check for early \n
 398:.././simpleserial/simpleserial.c **** 		if(c == '\n' || c == '\r')
 399:.././simpleserial/simpleserial.c **** 			return;
 400:.././simpleserial/simpleserial.c **** 
 401:.././simpleserial/simpleserial.c **** 		ascii_buf[i] = c;
 402:.././simpleserial/simpleserial.c **** 	}
 403:.././simpleserial/simpleserial.c **** 
 404:.././simpleserial/simpleserial.c **** 	// Assert that last character is \n or \r
 405:.././simpleserial/simpleserial.c **** 	c = getch();
 406:.././simpleserial/simpleserial.c **** 	if(c != '\n' && c != '\r')
 407:.././simpleserial/simpleserial.c **** 		return;
 408:.././simpleserial/simpleserial.c **** 
 409:.././simpleserial/simpleserial.c **** 	// ASCII buffer is full: convert to bytes
 410:.././simpleserial/simpleserial.c **** 	// Check for illegal characters here
 411:.././simpleserial/simpleserial.c **** 	if(hex_decode(commands[cmd].len, ascii_buf, data_buf))
 412:.././simpleserial/simpleserial.c **** 		return;
 413:.././simpleserial/simpleserial.c **** 
 414:.././simpleserial/simpleserial.c **** 	// Callback
 415:.././simpleserial/simpleserial.c **** 	uint8_t ret[1];
 416:.././simpleserial/simpleserial.c **** 	ret[0] = commands[cmd].fp(data_buf, commands[cmd].len);
 417:.././simpleserial/simpleserial.c **** 
 418:.././simpleserial/simpleserial.c **** 	// Acknowledge (if version is 1.1)
 419:.././simpleserial/simpleserial.c **** #if SS_VER == SS_VER_1_1
 420:.././simpleserial/simpleserial.c **** 	simpleserial_put('z', 1, ret);
 421:.././simpleserial/simpleserial.c **** #endif
 422:.././simpleserial/simpleserial.c **** }
 423:.././simpleserial/simpleserial.c **** 
 424:.././simpleserial/simpleserial.c **** void simpleserial_put(char c, uint8_t size, uint8_t* output)
 425:.././simpleserial/simpleserial.c **** {
 530              		.loc 1 425 1 is_stmt 1 view -0
 531              		.cfi_startproc
 532              		@ args = 0, pretend = 0, frame = 0
 533              		@ frame_needed = 0, uses_anonymous_args = 0
 534              		.loc 1 425 1 is_stmt 0 view .LVU128
 535 0000 F8B5     		push	{r3, r4, r5, r6, r7, lr}
 536              	.LCFI5:
 537              		.cfi_def_cfa_offset 24
 538              		.cfi_offset 3, -24
 539              		.cfi_offset 4, -20
 540              		.cfi_offset 5, -16
 541              		.cfi_offset 6, -12
 542              		.cfi_offset 7, -8
 543              		.cfi_offset 14, -4
 544              		.loc 1 425 1 view .LVU129
 545 0002 0D00     		movs	r5, r1
 426:.././simpleserial/simpleserial.c **** 	// Write first character
 427:.././simpleserial/simpleserial.c **** 	putch(c);
 546              		.loc 1 427 2 is_stmt 1 view .LVU130
 425:.././simpleserial/simpleserial.c **** 	// Write first character
 547              		.loc 1 425 1 is_stmt 0 view .LVU131
 548 0004 1400     		movs	r4, r2
 549              	.LBB9:
 428:.././simpleserial/simpleserial.c **** 
 429:.././simpleserial/simpleserial.c **** 	// Write each byte as two nibbles
 430:.././simpleserial/simpleserial.c **** 	for(int i = 0; i < size; i++)
 431:.././simpleserial/simpleserial.c **** 	{
 432:.././simpleserial/simpleserial.c **** 		putch(hex_lookup[output[i] >> 4 ]);
 433:.././simpleserial/simpleserial.c **** 		putch(hex_lookup[output[i] & 0xF]);
 550              		.loc 1 433 30 view .LVU132
 551 0006 0F27     		movs	r7, #15
 552              	.LBE9:
 427:.././simpleserial/simpleserial.c **** 
 553              		.loc 1 427 2 view .LVU133
 554 0008 FFF7FEFF 		bl	putch
 555              	.LVL43:
 430:.././simpleserial/simpleserial.c **** 	{
 556              		.loc 1 430 2 is_stmt 1 view .LVU134
 557              	.LBB10:
 430:.././simpleserial/simpleserial.c **** 	{
 558              		.loc 1 430 6 view .LVU135
 430:.././simpleserial/simpleserial.c **** 	{
 559              		.loc 1 430 6 is_stmt 0 view .LVU136
 560 000c 6519     		adds	r5, r4, r5
 561              	.LVL44:
 562              	.L36:
 430:.././simpleserial/simpleserial.c **** 	{
 563              		.loc 1 430 17 is_stmt 1 discriminator 1 view .LVU137
 430:.././simpleserial/simpleserial.c **** 	{
 564              		.loc 1 430 2 is_stmt 0 discriminator 1 view .LVU138
 565 000e AC42     		cmp	r4, r5
 566 0010 03D1     		bne	.L37
 567              	.LBE10:
 434:.././simpleserial/simpleserial.c **** 	}
 435:.././simpleserial/simpleserial.c **** 
 436:.././simpleserial/simpleserial.c **** 	// Write trailing '\n'
 437:.././simpleserial/simpleserial.c **** 	putch('\n');
 568              		.loc 1 437 2 is_stmt 1 view .LVU139
 438:.././simpleserial/simpleserial.c **** }
 569              		.loc 1 438 1 is_stmt 0 view .LVU140
 570              		@ sp needed
 437:.././simpleserial/simpleserial.c **** }
 571              		.loc 1 437 2 view .LVU141
 572 0012 0A20     		movs	r0, #10
 573 0014 FFF7FEFF 		bl	putch
 574              	.LVL45:
 575              	.LVL46:
 576              		.loc 1 438 1 view .LVU142
 577 0018 F8BD     		pop	{r3, r4, r5, r6, r7, pc}
 578              	.LVL47:
 579              	.L37:
 580              	.LBB11:
 432:.././simpleserial/simpleserial.c **** 		putch(hex_lookup[output[i] & 0xF]);
 581              		.loc 1 432 3 is_stmt 1 discriminator 3 view .LVU143
 432:.././simpleserial/simpleserial.c **** 		putch(hex_lookup[output[i] & 0xF]);
 582              		.loc 1 432 30 is_stmt 0 discriminator 3 view .LVU144
 583 001a 2378     		ldrb	r3, [r4]
 432:.././simpleserial/simpleserial.c **** 		putch(hex_lookup[output[i] & 0xF]);
 584              		.loc 1 432 3 discriminator 3 view .LVU145
 585 001c 054E     		ldr	r6, .L38
 432:.././simpleserial/simpleserial.c **** 		putch(hex_lookup[output[i] & 0xF]);
 586              		.loc 1 432 30 discriminator 3 view .LVU146
 587 001e 1B09     		lsrs	r3, r3, #4
 432:.././simpleserial/simpleserial.c **** 		putch(hex_lookup[output[i] & 0xF]);
 588              		.loc 1 432 3 discriminator 3 view .LVU147
 589 0020 F05C     		ldrb	r0, [r6, r3]
 590 0022 FFF7FEFF 		bl	putch
 591              	.LVL48:
 433:.././simpleserial/simpleserial.c **** 	}
 592              		.loc 1 433 3 is_stmt 1 discriminator 3 view .LVU148
 433:.././simpleserial/simpleserial.c **** 	}
 593              		.loc 1 433 30 is_stmt 0 discriminator 3 view .LVU149
 594 0026 2378     		ldrb	r3, [r4]
 595 0028 0134     		adds	r4, r4, #1
 596              	.LVL49:
 433:.././simpleserial/simpleserial.c **** 	}
 597              		.loc 1 433 30 discriminator 3 view .LVU150
 598 002a 3B40     		ands	r3, r7
 433:.././simpleserial/simpleserial.c **** 	}
 599              		.loc 1 433 3 discriminator 3 view .LVU151
 600 002c F05C     		ldrb	r0, [r6, r3]
 601 002e FFF7FEFF 		bl	putch
 602              	.LVL50:
 430:.././simpleserial/simpleserial.c **** 	{
 603              		.loc 1 430 27 is_stmt 1 discriminator 3 view .LVU152
 430:.././simpleserial/simpleserial.c **** 	{
 604              		.loc 1 430 27 is_stmt 0 discriminator 3 view .LVU153
 605 0032 ECE7     		b	.L36
 606              	.L39:
 607              		.align	2
 608              	.L38:
 609 0034 00000000 		.word	.LANCHOR1
 610              	.LBE11:
 611              		.cfi_endproc
 612              	.LFE11:
 614              		.section	.text.ss_num_commands,"ax",%progbits
 615              		.align	1
 616              		.global	ss_num_commands
 617              		.syntax unified
 618              		.code	16
 619              		.thumb_func
 620              		.fpu softvfp
 622              	ss_num_commands:
 623              	.LVL51:
 624              	.LFB4:
 267:.././simpleserial/simpleserial.c ****     uint8_t ncmds = num_commands & 0xFF;
 625              		.loc 1 267 1 is_stmt 1 view -0
 626              		.cfi_startproc
 627              		@ args = 0, pretend = 0, frame = 8
 628              		@ frame_needed = 0, uses_anonymous_args = 0
 268:.././simpleserial/simpleserial.c ****     simpleserial_put('r', 0x01, &ncmds);
 629              		.loc 1 268 5 view .LVU155
 267:.././simpleserial/simpleserial.c ****     uint8_t ncmds = num_commands & 0xFF;
 630              		.loc 1 267 1 is_stmt 0 view .LVU156
 631 0000 07B5     		push	{r0, r1, r2, lr}
 632              	.LCFI6:
 633              		.cfi_def_cfa_offset 16
 634              		.cfi_offset 0, -16
 635              		.cfi_offset 1, -12
 636              		.cfi_offset 2, -8
 637              		.cfi_offset 14, -4
 268:.././simpleserial/simpleserial.c ****     simpleserial_put('r', 0x01, &ncmds);
 638              		.loc 1 268 13 view .LVU157
 639 0002 6B46     		mov	r3, sp
 271:.././simpleserial/simpleserial.c **** 
 640              		.loc 1 271 1 view .LVU158
 641              		@ sp needed
 268:.././simpleserial/simpleserial.c ****     simpleserial_put('r', 0x01, &ncmds);
 642              		.loc 1 268 13 view .LVU159
 643 0004 DA1D     		adds	r2, r3, #7
 644 0006 044B     		ldr	r3, .L41
 269:.././simpleserial/simpleserial.c ****     return 0x00;
 645              		.loc 1 269 5 view .LVU160
 646 0008 7220     		movs	r0, #114
 647              	.LVL52:
 268:.././simpleserial/simpleserial.c ****     simpleserial_put('r', 0x01, &ncmds);
 648              		.loc 1 268 13 view .LVU161
 649 000a 1B68     		ldr	r3, [r3]
 269:.././simpleserial/simpleserial.c ****     return 0x00;
 650              		.loc 1 269 5 view .LVU162
 651 000c 0121     		movs	r1, #1
 652              	.LVL53:
 268:.././simpleserial/simpleserial.c ****     simpleserial_put('r', 0x01, &ncmds);
 653              		.loc 1 268 13 view .LVU163
 654 000e 1370     		strb	r3, [r2]
 269:.././simpleserial/simpleserial.c ****     return 0x00;
 655              		.loc 1 269 5 is_stmt 1 view .LVU164
 656 0010 FFF7FEFF 		bl	simpleserial_put
 657              	.LVL54:
 270:.././simpleserial/simpleserial.c **** }
 658              		.loc 1 270 5 view .LVU165
 271:.././simpleserial/simpleserial.c **** 
 659              		.loc 1 271 1 is_stmt 0 view .LVU166
 660 0014 0020     		movs	r0, #0
 661 0016 0EBD     		pop	{r1, r2, r3, pc}
 662              	.L42:
 663              		.align	2
 664              	.L41:
 665 0018 00000000 		.word	.LANCHOR0
 666              		.cfi_endproc
 667              	.LFE4:
 669              		.section	.text.ss_get_commands,"ax",%progbits
 670              		.align	1
 671              		.global	ss_get_commands
 672              		.syntax unified
 673              		.code	16
 674              		.thumb_func
 675              		.fpu softvfp
 677              	ss_get_commands:
 678              	.LVL55:
 679              	.LFB5:
 280:.././simpleserial/simpleserial.c ****     ss_cmd_repr repr_cmd_buf[MAX_SS_CMDS];
 680              		.loc 1 280 1 is_stmt 1 view -0
 681              		.cfi_startproc
 682              		@ args = 0, pretend = 0, frame = 48
 683              		@ frame_needed = 0, uses_anonymous_args = 0
 281:.././simpleserial/simpleserial.c ****     for (uint8_t i = 0; i < (num_commands & 0xFF); i++) {
 684              		.loc 1 281 5 view .LVU168
 282:.././simpleserial/simpleserial.c ****         repr_cmd_buf[i].c = commands[i].c;
 685              		.loc 1 282 5 view .LVU169
 686              	.LBB12:
 282:.././simpleserial/simpleserial.c ****         repr_cmd_buf[i].c = commands[i].c;
 687              		.loc 1 282 10 view .LVU170
 282:.././simpleserial/simpleserial.c ****         repr_cmd_buf[i].c = commands[i].c;
 688              		.loc 1 282 10 is_stmt 0 view .LVU171
 689 0000 0322     		movs	r2, #3
 282:.././simpleserial/simpleserial.c ****         repr_cmd_buf[i].c = commands[i].c;
 690              		.loc 1 282 43 view .LVU172
 691 0002 114B     		ldr	r3, .L46
 692              	.LBE12:
 280:.././simpleserial/simpleserial.c ****     ss_cmd_repr repr_cmd_buf[MAX_SS_CMDS];
 693              		.loc 1 280 1 view .LVU173
 694 0004 F0B5     		push	{r4, r5, r6, r7, lr}
 695              	.LCFI7:
 696              		.cfi_def_cfa_offset 20
 697              		.cfi_offset 4, -20
 698              		.cfi_offset 5, -16
 699              		.cfi_offset 6, -12
 700              		.cfi_offset 7, -8
 701              		.cfi_offset 14, -4
 702 0006 9446     		mov	ip, r2
 703              	.LBB13:
 282:.././simpleserial/simpleserial.c ****         repr_cmd_buf[i].c = commands[i].c;
 704              		.loc 1 282 43 view .LVU174
 705 0008 1C68     		ldr	r4, [r3]
 282:.././simpleserial/simpleserial.c ****         repr_cmd_buf[i].c = commands[i].c;
 706              		.loc 1 282 18 view .LVU175
 707 000a 0023     		movs	r3, #0
 283:.././simpleserial/simpleserial.c ****         repr_cmd_buf[i].len = commands[i].len;
 708              		.loc 1 283 40 view .LVU176
 709 000c 0F4D     		ldr	r5, .L46+4
 710              	.LBE13:
 280:.././simpleserial/simpleserial.c ****     ss_cmd_repr repr_cmd_buf[MAX_SS_CMDS];
 711              		.loc 1 280 1 view .LVU177
 712 000e 8DB0     		sub	sp, sp, #52
 713              	.LCFI8:
 714              		.cfi_def_cfa_offset 72
 715              	.LBB14:
 282:.././simpleserial/simpleserial.c ****         repr_cmd_buf[i].c = commands[i].c;
 716              		.loc 1 282 43 view .LVU178
 717 0010 E6B2     		uxtb	r6, r4
 718              	.LVL56:
 719              	.L44:
 282:.././simpleserial/simpleserial.c ****         repr_cmd_buf[i].c = commands[i].c;
 720              		.loc 1 282 25 is_stmt 1 discriminator 1 view .LVU179
 282:.././simpleserial/simpleserial.c ****         repr_cmd_buf[i].c = commands[i].c;
 721              		.loc 1 282 5 is_stmt 0 discriminator 1 view .LVU180
 722 0012 B342     		cmp	r3, r6
 723 0014 09DB     		blt	.L45
 724              	.LBE14:
 288:.././simpleserial/simpleserial.c ****     return 0x00;
 725              		.loc 1 288 5 is_stmt 1 view .LVU181
 726 0016 6146     		mov	r1, ip
 727 0018 6143     		muls	r1, r4
 728 001a 6A46     		mov	r2, sp
 729 001c 7220     		movs	r0, #114
 730 001e C9B2     		uxtb	r1, r1
 731 0020 FFF7FEFF 		bl	simpleserial_put
 732              	.LVL57:
 289:.././simpleserial/simpleserial.c **** }
 733              		.loc 1 289 5 view .LVU182
 290:.././simpleserial/simpleserial.c **** 
 734              		.loc 1 290 1 is_stmt 0 view .LVU183
 735 0024 0020     		movs	r0, #0
 736 0026 0DB0     		add	sp, sp, #52
 737              		@ sp needed
 738 0028 F0BD     		pop	{r4, r5, r6, r7, pc}
 739              	.LVL58:
 740              	.L45:
 741              	.LBB15:
 283:.././simpleserial/simpleserial.c ****         repr_cmd_buf[i].len = commands[i].len;
 742              		.loc 1 283 9 is_stmt 1 discriminator 3 view .LVU184
 283:.././simpleserial/simpleserial.c ****         repr_cmd_buf[i].len = commands[i].len;
 743              		.loc 1 283 27 is_stmt 0 discriminator 3 view .LVU185
 744 002a 6246     		mov	r2, ip
 745 002c 6946     		mov	r1, sp
 746 002e 5A43     		muls	r2, r3
 283:.././simpleserial/simpleserial.c ****         repr_cmd_buf[i].len = commands[i].len;
 747              		.loc 1 283 40 discriminator 3 view .LVU186
 748 0030 1801     		lsls	r0, r3, #4
 283:.././simpleserial/simpleserial.c ****         repr_cmd_buf[i].len = commands[i].len;
 749              		.loc 1 283 27 discriminator 3 view .LVU187
 750 0032 475D     		ldrb	r7, [r0, r5]
 284:.././simpleserial/simpleserial.c ****         repr_cmd_buf[i].flags = commands[i].flags;
 751              		.loc 1 284 42 discriminator 3 view .LVU188
 752 0034 2818     		adds	r0, r5, r0
 283:.././simpleserial/simpleserial.c ****         repr_cmd_buf[i].len = commands[i].len;
 753              		.loc 1 283 27 discriminator 3 view .LVU189
 754 0036 8F54     		strb	r7, [r1, r2]
 284:.././simpleserial/simpleserial.c ****         repr_cmd_buf[i].flags = commands[i].flags;
 755              		.loc 1 284 9 is_stmt 1 discriminator 3 view .LVU190
 284:.././simpleserial/simpleserial.c ****         repr_cmd_buf[i].flags = commands[i].flags;
 756              		.loc 1 284 29 is_stmt 0 discriminator 3 view .LVU191
 757 0038 4168     		ldr	r1, [r0, #4]
 285:.././simpleserial/simpleserial.c ****     }
 758              		.loc 1 285 31 discriminator 3 view .LVU192
 759 003a 007B     		ldrb	r0, [r0, #12]
 284:.././simpleserial/simpleserial.c ****         repr_cmd_buf[i].flags = commands[i].flags;
 760              		.loc 1 284 29 discriminator 3 view .LVU193
 761 003c 6A44     		add	r2, r2, sp
 282:.././simpleserial/simpleserial.c ****         repr_cmd_buf[i].c = commands[i].c;
 762              		.loc 1 282 53 discriminator 3 view .LVU194
 763 003e 0133     		adds	r3, r3, #1
 764              	.LVL59:
 284:.././simpleserial/simpleserial.c ****         repr_cmd_buf[i].flags = commands[i].flags;
 765              		.loc 1 284 29 discriminator 3 view .LVU195
 766 0040 5170     		strb	r1, [r2, #1]
 285:.././simpleserial/simpleserial.c ****     }
 767              		.loc 1 285 9 is_stmt 1 discriminator 3 view .LVU196
 285:.././simpleserial/simpleserial.c ****     }
 768              		.loc 1 285 31 is_stmt 0 discriminator 3 view .LVU197
 769 0042 9070     		strb	r0, [r2, #2]
 282:.././simpleserial/simpleserial.c ****         repr_cmd_buf[i].c = commands[i].c;
 770              		.loc 1 282 52 is_stmt 1 discriminator 3 view .LVU198
 282:.././simpleserial/simpleserial.c ****         repr_cmd_buf[i].c = commands[i].c;
 771              		.loc 1 282 53 is_stmt 0 discriminator 3 view .LVU199
 772 0044 DBB2     		uxtb	r3, r3
 773              	.LVL60:
 282:.././simpleserial/simpleserial.c ****         repr_cmd_buf[i].c = commands[i].c;
 774              		.loc 1 282 53 discriminator 3 view .LVU200
 775 0046 E4E7     		b	.L44
 776              	.L47:
 777              		.align	2
 778              	.L46:
 779 0048 00000000 		.word	.LANCHOR0
 780 004c 04000000 		.word	commands
 781              	.LBE15:
 782              		.cfi_endproc
 783              	.LFE5:
 785              		.section	.text.simpleserial_get,"ax",%progbits
 786              		.align	1
 787              		.global	simpleserial_get
 788              		.syntax unified
 789              		.code	16
 790              		.thumb_func
 791              		.fpu softvfp
 793              	simpleserial_get:
 794              	.LFB10:
 361:.././simpleserial/simpleserial.c **** 	char ascii_buf[2*MAX_SS_LEN];
 795              		.loc 1 361 1 is_stmt 1 view -0
 796              		.cfi_startproc
 797              		@ args = 0, pretend = 0, frame = 776
 798              		@ frame_needed = 0, uses_anonymous_args = 0
 362:.././simpleserial/simpleserial.c **** 	uint8_t data_buf[MAX_SS_LEN];
 799              		.loc 1 362 2 view .LVU202
 363:.././simpleserial/simpleserial.c **** 	char c;
 800              		.loc 1 363 2 view .LVU203
 364:.././simpleserial/simpleserial.c **** 
 801              		.loc 1 364 2 view .LVU204
 367:.././simpleserial/simpleserial.c **** 
 802              		.loc 1 367 2 view .LVU205
 361:.././simpleserial/simpleserial.c **** 	char ascii_buf[2*MAX_SS_LEN];
 803              		.loc 1 361 1 is_stmt 0 view .LVU206
 804 0000 F0B5     		push	{r4, r5, r6, r7, lr}
 805              	.LCFI9:
 806              		.cfi_def_cfa_offset 20
 807              		.cfi_offset 4, -20
 808              		.cfi_offset 5, -16
 809              		.cfi_offset 6, -12
 810              		.cfi_offset 7, -8
 811              		.cfi_offset 14, -4
 812 0002 304C     		ldr	r4, .L71
 813 0004 A544     		add	sp, sp, r4
 814              	.LCFI10:
 815              		.cfi_def_cfa_offset 800
 367:.././simpleserial/simpleserial.c **** 
 816              		.loc 1 367 6 view .LVU207
 817 0006 FFF7FEFF 		bl	getch
 818              	.LVL61:
 369:.././simpleserial/simpleserial.c **** 	for(cmd = 0; cmd < num_commands; cmd++)
 819              		.loc 1 369 2 is_stmt 1 view .LVU208
 370:.././simpleserial/simpleserial.c **** 	{
 820              		.loc 1 370 2 view .LVU209
 370:.././simpleserial/simpleserial.c **** 	{
 821              		.loc 1 370 19 is_stmt 0 view .LVU210
 822 000a 2F4B     		ldr	r3, .L71+4
 372:.././simpleserial/simpleserial.c **** 			break;
 823              		.loc 1 372 19 view .LVU211
 824 000c 2F49     		ldr	r1, .L71+8
 370:.././simpleserial/simpleserial.c **** 	{
 825              		.loc 1 370 19 view .LVU212
 826 000e 1A68     		ldr	r2, [r3]
 370:.././simpleserial/simpleserial.c **** 	{
 827              		.loc 1 370 10 view .LVU213
 828 0010 0023     		movs	r3, #0
 829              	.LVL62:
 830              	.L49:
 370:.././simpleserial/simpleserial.c **** 	{
 831              		.loc 1 370 15 is_stmt 1 discriminator 1 view .LVU214
 370:.././simpleserial/simpleserial.c **** 	{
 832              		.loc 1 370 2 is_stmt 0 discriminator 1 view .LVU215
 833 0012 9A42     		cmp	r2, r3
 834 0014 04DC     		bgt	.L53
 377:.././simpleserial/simpleserial.c **** 		return;
 835              		.loc 1 377 2 is_stmt 1 view .LVU216
 377:.././simpleserial/simpleserial.c **** 		return;
 836              		.loc 1 377 4 is_stmt 0 view .LVU217
 837 0016 07D1     		bne	.L55
 838              	.LVL63:
 839              	.L48:
 422:.././simpleserial/simpleserial.c **** 
 840              		.loc 1 422 1 view .LVU218
 841 0018 C323     		movs	r3, #195
 842 001a 9B00     		lsls	r3, r3, #2
 843 001c 9D44     		add	sp, sp, r3
 844              		@ sp needed
 845 001e F0BD     		pop	{r4, r5, r6, r7, pc}
 846              	.LVL64:
 847              	.L53:
 372:.././simpleserial/simpleserial.c **** 			break;
 848              		.loc 1 372 3 is_stmt 1 view .LVU219
 372:.././simpleserial/simpleserial.c **** 			break;
 849              		.loc 1 372 19 is_stmt 0 view .LVU220
 850 0020 1C01     		lsls	r4, r3, #4
 372:.././simpleserial/simpleserial.c **** 			break;
 851              		.loc 1 372 5 view .LVU221
 852 0022 0C5D     		ldrb	r4, [r1, r4]
 853 0024 8442     		cmp	r4, r0
 854 0026 41D1     		bne	.L50
 855              	.L55:
 381:.././simpleserial/simpleserial.c **** 	{
 856              		.loc 1 381 2 is_stmt 1 view .LVU222
 381:.././simpleserial/simpleserial.c **** 	{
 857              		.loc 1 381 5 is_stmt 0 view .LVU223
 858 0028 0127     		movs	r7, #1
 381:.././simpleserial/simpleserial.c **** 	{
 859              		.loc 1 381 20 view .LVU224
 860 002a 284D     		ldr	r5, .L71+8
 861 002c 1C01     		lsls	r4, r3, #4
 862 002e 2E19     		adds	r6, r5, r4
 381:.././simpleserial/simpleserial.c **** 	{
 863              		.loc 1 381 5 view .LVU225
 864 0030 337B     		ldrb	r3, [r6, #12]
 865              	.LVL65:
 381:.././simpleserial/simpleserial.c **** 	{
 866              		.loc 1 381 5 view .LVU226
 867 0032 3B42     		tst	r3, r7
 868 0034 1AD0     		beq	.L52
 869              	.LBB16:
 383:.././simpleserial/simpleserial.c **** 		char buff[2];
 870              		.loc 1 383 3 is_stmt 1 view .LVU227
 383:.././simpleserial/simpleserial.c **** 		char buff[2];
 871              		.loc 1 383 11 is_stmt 0 view .LVU228
 872 0036 0023     		movs	r3, #0
 873 0038 6A46     		mov	r2, sp
 874 003a 1372     		strb	r3, [r2, #8]
 384:.././simpleserial/simpleserial.c **** 		buff[0] = getch();
 875              		.loc 1 384 3 is_stmt 1 view .LVU229
 385:.././simpleserial/simpleserial.c **** 		buff[1] = getch();
 876              		.loc 1 385 3 view .LVU230
 385:.././simpleserial/simpleserial.c **** 		buff[1] = getch();
 877              		.loc 1 385 13 is_stmt 0 view .LVU231
 878 003c FFF7FEFF 		bl	getch
 879              	.LVL66:
 385:.././simpleserial/simpleserial.c **** 		buff[1] = getch();
 880              		.loc 1 385 11 view .LVU232
 881 0040 8422     		movs	r2, #132
 882 0042 6B46     		mov	r3, sp
 883 0044 5200     		lsls	r2, r2, #1
 884 0046 9B18     		adds	r3, r3, r2
 885 0048 1870     		strb	r0, [r3]
 386:.././simpleserial/simpleserial.c **** 		if (hex_decode(1, buff, &l))
 886              		.loc 1 386 3 is_stmt 1 view .LVU233
 386:.././simpleserial/simpleserial.c **** 		if (hex_decode(1, buff, &l))
 887              		.loc 1 386 13 is_stmt 0 view .LVU234
 888 004a FFF7FEFF 		bl	getch
 889              	.LVL67:
 386:.././simpleserial/simpleserial.c **** 		if (hex_decode(1, buff, &l))
 890              		.loc 1 386 11 view .LVU235
 891 004e 0A22     		movs	r2, #10
 892 0050 6B46     		mov	r3, sp
 893 0052 FF32     		adds	r2, r2, #255
 894 0054 9B18     		adds	r3, r3, r2
 895 0056 1870     		strb	r0, [r3]
 387:.././simpleserial/simpleserial.c **** 			return;
 896              		.loc 1 387 3 is_stmt 1 view .LVU236
 387:.././simpleserial/simpleserial.c **** 			return;
 897              		.loc 1 387 7 is_stmt 0 view .LVU237
 898 0058 02AA     		add	r2, sp, #8
 899 005a 3800     		movs	r0, r7
 900 005c 42A9     		add	r1, sp, #264
 901 005e FFF7FEFF 		bl	hex_decode
 902              	.LVL68:
 387:.././simpleserial/simpleserial.c **** 			return;
 903              		.loc 1 387 6 view .LVU238
 904 0062 0028     		cmp	r0, #0
 905 0064 D8D1     		bne	.L48
 389:.././simpleserial/simpleserial.c **** 	}
 906              		.loc 1 389 3 is_stmt 1 view .LVU239
 389:.././simpleserial/simpleserial.c **** 	}
 907              		.loc 1 389 21 is_stmt 0 view .LVU240
 908 0066 6B46     		mov	r3, sp
 909 0068 1B7A     		ldrb	r3, [r3, #8]
 910 006a 7360     		str	r3, [r6, #4]
 911              	.L52:
 912              	.LBE16:
 370:.././simpleserial/simpleserial.c **** 	{
 913              		.loc 1 370 10 discriminator 1 view .LVU241
 914 006c 0026     		movs	r6, #0
 915              	.L58:
 916              	.LVL69:
 917              	.LBB17:
 393:.././simpleserial/simpleserial.c **** 	{
 918              		.loc 1 393 17 is_stmt 1 discriminator 1 view .LVU242
 393:.././simpleserial/simpleserial.c **** 	{
 919              		.loc 1 393 36 is_stmt 0 discriminator 1 view .LVU243
 920 006e 2B19     		adds	r3, r5, r4
 393:.././simpleserial/simpleserial.c **** 	{
 921              		.loc 1 393 22 discriminator 1 view .LVU244
 922 0070 5B68     		ldr	r3, [r3, #4]
 923 0072 5B00     		lsls	r3, r3, #1
 393:.././simpleserial/simpleserial.c **** 	{
 924              		.loc 1 393 2 discriminator 1 view .LVU245
 925 0074 B342     		cmp	r3, r6
 926 0076 1BD8     		bhi	.L59
 927              	.LBE17:
 405:.././simpleserial/simpleserial.c **** 	if(c != '\n' && c != '\r')
 928              		.loc 1 405 2 is_stmt 1 view .LVU246
 405:.././simpleserial/simpleserial.c **** 	if(c != '\n' && c != '\r')
 929              		.loc 1 405 6 is_stmt 0 view .LVU247
 930 0078 FFF7FEFF 		bl	getch
 931              	.LVL70:
 406:.././simpleserial/simpleserial.c **** 		return;
 932              		.loc 1 406 2 is_stmt 1 view .LVU248
 406:.././simpleserial/simpleserial.c **** 		return;
 933              		.loc 1 406 4 is_stmt 0 view .LVU249
 934 007c 0A28     		cmp	r0, #10
 935 007e 01D0     		beq	.L60
 406:.././simpleserial/simpleserial.c **** 		return;
 936              		.loc 1 406 15 discriminator 1 view .LVU250
 937 0080 0D28     		cmp	r0, #13
 938 0082 C9D1     		bne	.L48
 939              	.L60:
 411:.././simpleserial/simpleserial.c **** 		return;
 940              		.loc 1 411 2 is_stmt 1 view .LVU251
 411:.././simpleserial/simpleserial.c **** 		return;
 941              		.loc 1 411 29 is_stmt 0 view .LVU252
 942 0084 2C19     		adds	r4, r5, r4
 943 0086 6568     		ldr	r5, [r4, #4]
 411:.././simpleserial/simpleserial.c **** 		return;
 944              		.loc 1 411 5 view .LVU253
 945 0088 02AA     		add	r2, sp, #8
 946 008a 2800     		movs	r0, r5
 947              	.LVL71:
 411:.././simpleserial/simpleserial.c **** 		return;
 948              		.loc 1 411 5 view .LVU254
 949 008c 42A9     		add	r1, sp, #264
 950 008e FFF7FEFF 		bl	hex_decode
 951              	.LVL72:
 411:.././simpleserial/simpleserial.c **** 		return;
 952              		.loc 1 411 4 view .LVU255
 953 0092 0028     		cmp	r0, #0
 954 0094 C0D1     		bne	.L48
 415:.././simpleserial/simpleserial.c **** 	ret[0] = commands[cmd].fp(data_buf, commands[cmd].len);
 955              		.loc 1 415 2 is_stmt 1 view .LVU256
 416:.././simpleserial/simpleserial.c **** 
 956              		.loc 1 416 2 view .LVU257
 416:.././simpleserial/simpleserial.c **** 
 957              		.loc 1 416 11 is_stmt 0 view .LVU258
 958 0096 E9B2     		uxtb	r1, r5
 959 0098 A368     		ldr	r3, [r4, #8]
 960 009a 02A8     		add	r0, sp, #8
 961 009c 9847     		blx	r3
 962              	.LVL73:
 416:.././simpleserial/simpleserial.c **** 
 963              		.loc 1 416 9 view .LVU259
 964 009e 01AA     		add	r2, sp, #4
 965 00a0 1070     		strb	r0, [r2]
 420:.././simpleserial/simpleserial.c **** #endif
 966              		.loc 1 420 2 is_stmt 1 view .LVU260
 967 00a2 0121     		movs	r1, #1
 968 00a4 7A20     		movs	r0, #122
 969 00a6 FFF7FEFF 		bl	simpleserial_put
 970              	.LVL74:
 971 00aa B5E7     		b	.L48
 972              	.LVL75:
 973              	.L50:
 370:.././simpleserial/simpleserial.c **** 	{
 974              		.loc 1 370 35 discriminator 2 view .LVU261
 370:.././simpleserial/simpleserial.c **** 	{
 975              		.loc 1 370 38 is_stmt 0 discriminator 2 view .LVU262
 976 00ac 0133     		adds	r3, r3, #1
 977              	.LVL76:
 370:.././simpleserial/simpleserial.c **** 	{
 978              		.loc 1 370 38 discriminator 2 view .LVU263
 979 00ae B0E7     		b	.L49
 980              	.LVL77:
 981              	.L59:
 982              	.LBB18:
 395:.././simpleserial/simpleserial.c **** 
 983              		.loc 1 395 3 is_stmt 1 view .LVU264
 395:.././simpleserial/simpleserial.c **** 
 984              		.loc 1 395 7 is_stmt 0 view .LVU265
 985 00b0 FFF7FEFF 		bl	getch
 986              	.LVL78:
 398:.././simpleserial/simpleserial.c **** 			return;
 987              		.loc 1 398 3 is_stmt 1 view .LVU266
 398:.././simpleserial/simpleserial.c **** 			return;
 988              		.loc 1 398 5 is_stmt 0 view .LVU267
 989 00b4 0A28     		cmp	r0, #10
 990 00b6 AFD0     		beq	.L48
 398:.././simpleserial/simpleserial.c **** 			return;
 991              		.loc 1 398 16 discriminator 1 view .LVU268
 992 00b8 0D28     		cmp	r0, #13
 993 00ba ADD0     		beq	.L48
 401:.././simpleserial/simpleserial.c **** 	}
 994              		.loc 1 401 3 is_stmt 1 discriminator 2 view .LVU269
 401:.././simpleserial/simpleserial.c **** 	}
 995              		.loc 1 401 16 is_stmt 0 discriminator 2 view .LVU270
 996 00bc 42AB     		add	r3, sp, #264
 997 00be F054     		strb	r0, [r6, r3]
 393:.././simpleserial/simpleserial.c **** 	{
 998              		.loc 1 393 42 is_stmt 1 discriminator 2 view .LVU271
 393:.././simpleserial/simpleserial.c **** 	{
 999              		.loc 1 393 43 is_stmt 0 discriminator 2 view .LVU272
 1000 00c0 0136     		adds	r6, r6, #1
 1001              	.LVL79:
 393:.././simpleserial/simpleserial.c **** 	{
 1002              		.loc 1 393 43 discriminator 2 view .LVU273
 1003 00c2 D4E7     		b	.L58
 1004              	.L72:
 1005              		.align	2
 1006              	.L71:
 1007 00c4 F4FCFFFF 		.word	-780
 1008 00c8 00000000 		.word	.LANCHOR0
 1009 00cc 04000000 		.word	commands
 1010              	.LBE18:
 1011              		.cfi_endproc
 1012              	.LFE10:
 1014              		.section	.rodata
 1015              		.set	.LANCHOR1,. + 0
 1018              	hex_lookup:
 1019 0000 30313233 		.ascii	"0123456789ABCDEF"
 1019      34353637 
 1019      38394142 
 1019      43444546 
 1020              		.bss
 1021              		.align	2
 1022              		.set	.LANCHOR0,. + 0
 1025              	num_commands:
 1026 0000 00000000 		.space	4
 1029              	commands:
 1030 0004 00000000 		.space	256
 1030      00000000 
 1030      00000000 
 1030      00000000 
 1030      00000000 
 1031              		.text
 1032              	.Letext0:
 1033              		.file 3 "/usr/lib/gcc/arm-none-eabi/10.3.1/include/stdint.h"
 1034              		.file 4 ".././hal/stm32f0/stm32f0_hal.h"